(dp0
Vsecondly
p1
I2
sVwritings
p2
I3
sVmagnetic
p3
I5
sVchild
p4
I829
sVall
p5
I2463
sVyellow
p6
I48
sVfour
p7
I10
sVfacilities
p8
I11
sVcias
p9
I12
sVhanging
p10
I13
sVappetite
p11
I14
sVcaptain
p12
I15
sVsaved
p13
I16
sVassembled
p14
I17
sVpack
p15
I3305
sValiases
p16
I107
sVstinks
p17
I19
sVwhose
p18
I113
sVafonso
p19
I21
sVpedro
p20
I22
sVviolate
p21
I23
sVjaipur
p22
I24
sVparis
p23
I25
sV45
p24
I4810
sVbike
p25
I27
sVunder
p26
I28
sVlord
p27
I29
sVsorry
p28
I30
sVpride
p29
I31
sVworth
p30
I32
sVordnance
p31
I438
sVlack
p32
I2470
sVrisk
p33
I38
sVcompassion
p34
I40
sVblanket
p35
I41
sVrise
p36
I42
sVpenny
p37
I4434
sVevery
p38
I47
sVjack
p39
I773
sVgovern
p40
I49
sVaffect
p41
I50
sVstabbed
p42
I51
sVscreaming
p43
I334
sVcourageous
p44
I53
sVlook
p45
I3292
sVyikes
p46
I54
sVschool
p47
I55
sVandretti
p48
I57
sVceased
p49
I2473
sVskills
p50
I59
sVcause
p51
I4059
sVcompanies
p52
I62
sVupload
p53
I63
sVroadblock
p54
I64
sVsammys
p55
I65
sVhonor
p56
I3800
sVauthorized
p57
I3888
sVsleep
p58
I67
sVheading
p59
I68
sVclothes
p60
I69
sVenjoy
p61
I70
sVforce
p62
I71
sVtired
p63
I72
sVphones
p64
I74
sVrgio
p65
I4801
sVmail
p66
I4449
sVdirect
p67
I76
sVpulse
p68
I77
sVtires
p69
I78
sVelegant
p70
I79
sVsecond
p71
I80
sVstreet
p72
I81
sVexcuseme
p73
I82
sVsustaining
p74
I83
sVarms
p75
I199
sVimplemented
p76
I86
sVmachines
p77
I87
sVshining
p78
I88
sVeven
p79
I89
sVestablished
p80
I90
sVchrist
p81
I91
sVprisons
p82
I599
sVhate
p83
I93
sVpanama
p84
I3685
sVcooking
p85
I95
sVweren
p86
I2638
sVchildren
p87
I2481
sVlights
p88
I98
sVwarmongering
p89
I99
sVmakes
p90
I3799
sVchechen
p91
I101
sVabove
p92
I102
sVblur
p93
I103
sVsupplier
p94
I104
sVsupplies
p95
I1278
sVnet
p96
I106
sVofaidid
p97
I1141
sVever
p98
I108
sVtold
p99
I109
sVrelationships
p100
I110
sVagreement
p101
I3495
sVmillion
p102
I1676
sVhero
p103
I112
sVreporter
p104
I721
sVmen
p105
I115
sVbrainwashed
p106
I116
sVhere
p107
I117
sVhundreds
p108
I752
sVrocks
p109
I2770
sVreprogrammed
p110
I119
sVprotection
p111
I120
sVchina
p112
I121
sVgreedy
p113
I4069
sVhumility
p114
I123
sVpath
p115
I124
sV100
p116
I125
sV101
p117
I126
sVdork
p118
I127
sVbuddy
p119
I128
sVobtained
p120
I129
sVhell
p121
I2768
sVkids
p122
I131
sVdaughter
p123
I132
sVtapes
p124
I133
sVleaves
p125
I135
sVchanged
p126
I1231
sVaffective
p127
I4072
sVreports
p128
I138
sVguide
p129
I3431
sVtwombs
p130
I140
sVcredit
p131
I141
sVanalysts
p132
I143
sVsmoke
p133
I144
sVmilitary
p134
I145
sVsuitable
p135
I146
sVchanges
p136
I147
sVpledged
p137
I2485
sVbiometric
p138
I149
sVpunctilious
p139
I150
sVspooks
p140
I151
sVsecure
p141
I956
sVcampaign
p142
I153
sVspooky
p143
I154
sVexplained
p144
I155
sVinflicting
p145
I156
sVjulia
p146
I157
sVhighly
p147
I158
sVbrought
p148
I159
sVpatience
p149
I160
sVsloane
p150
I162
sVguests
p151
I163
sVdepressurization
p152
I4074
sVln
p153
I3980
sVtotal
p154
I165
sVscarier
p155
I166
sVsarah
p156
I167
sVspoke
p157
I169
sVwould
p158
I170
sVarmy
p159
I171
sValongside
p160
I3651
sVspaniards
p161
I172
sVhungry
p162
I1348
sVnegative
p163
I174
sVpray
p164
I4474
sVedward
p165
I175
sVcall
p166
I176
sVcalm
p167
I177
sVcentre
p168
I4219
sVrecommend
p169
I178
sVstrike
p170
I179
sVsurvive
p171
I180
sVtype
p172
I181
sVtell
p173
I182
sVseparated
p174
I183
sVtolerated
p175
I184
sVholy
p176
I186
sVrelax
p177
I187
sVsuccessful
p178
I188
sVbrings
p179
I189
sVnaive
p180
I190
sVhereby
p181
I191
sVhaha
p182
I192
sVwars
p183
I193
sVaward
p184
I194
sVhurt
p185
I195
sVwarn
p186
I196
sVglass
p187
I1227
sVwarm
p188
I198
sVadult
p189
I1243
sVexcellent
p190
I200
sV91
p191
I201
sV90
p192
I690
sVpacts
p193
I203
sVhold
p194
I204
sVblocking
p195
I1274
sVmust
p196
I206
sVme
p197
I1284
sVjoin
p198
I114
sVroom
p199
I209
sV1997
p200
I210
sVrights
p201
I1311
sVmm
p202
I212
sVsetup
p203
I185
sVwork
p204
I214
sVmh
p205
I215
sVmk
p206
I216
sVregrets
p207
I217
sVmovies
p208
I218
sVtissue
p209
I219
sVinstall
p210
I1362
sVmr
p211
I221
sVim
p212
I222
sVmy
p213
I224
sVexample
p214
I225
sVcans
p215
I226
sVtriple
p216
I3318
sVestate
p217
I230
sVgive
p218
I231
sVbennett
p219
I233
sVindia
p220
I234
sVthatyou
p221
I235
sVhoney
p222
I236
sVcurrency
p223
I237
sVorion
p224
I238
sVcaution
p225
I240
sVwant
p226
I241
sVbraincells
p227
I242
sVtimes
p228
I1620
sVcocksucker
p229
I245
sVadvancing
p230
I246
sVguarantee
p231
I247
sVceremony
p232
I248
sVend
p233
I249
sVshughart
p234
I250
sVthing
p235
I1699
sVenquiry
p236
I252
sVverify
p237
I253
sVreturning
p238
I2506
sVpigsty
p239
I255
sVdamage
p240
I256
sVmachine
p241
I257
sVhow
p242
I258
sVamazing
p243
I259
sVdisappear
p244
I260
sVhop
p245
I261
sVrookie
p246
I262
sVanswer
p247
I263
sVdisappoint
p248
I264
sVordinary
p249
I265
sVchase
p250
I3323
sVresignation
p251
I267
sVvoid
p252
I268
sVclassify
p253
I269
sVmassive
p254
I1703
sVbadly
p255
I271
sVbriefcase
p256
I274
sVhaven
p257
I4155
sVmess
p258
I276
sVsummon
p259
I4310
sVafter
p260
I278
sVloyalty
p261
I279
sVlab
p262
I280
sVroutes
p263
I1705
sVwrong
p264
I282
sVlay
p265
I284
sVpopular
p266
I3448
sVpresident
p267
I285
sVlaw
p268
I286
sVlap
p269
I287
sVparallel
p270
I4094
sVtypes
p271
I289
sVstronghold
p272
I290
sVpurchase
p273
I291
sVdanny
p274
I292
sVthird
p275
I293
sVoccasions
p276
I2819
sVgreer
p277
I295
sVwins
p278
I296
sVseduce
p279
I3326
sVappreciate
p280
I299
sVexhibition
p281
I3409
sVstrongpoint
p282
I301
sVthink
p283
I1708
sVhasta
p284
I302
sVcigarettes
p285
I303
sVmaintain
p286
I304
sVgreen
p287
I305
sVultimate
p288
I306
sVenter
p289
I307
sVmightshoot
p290
I308
sVmaterialise
p291
I3710
sV1000
p292
I1710
sVorder
p293
I310
sVgreed
p294
I311
sVwine
p295
I312
sVoperations
p296
I313
sVtoaster
p297
I314
sVyourposition
p298
I315
sVoffice
p299
I317
sVdeck
p300
I318
sVconsent
p301
I319
sVover
p302
I320
sVsatisfied
p303
I322
sVteen
p304
I2643
sVhelena
p305
I324
sVbenefited
p306
I1713
sVlondon
p307
I325
sVbanged
p308
I326
sVrewarded
p309
I327
sVtalkative
p310
I328
sVbefore
p311
I329
sVfoilowing
p312
I330
sVdirectionai
p313
I331
sViathe
p314
I4419
sVfit
p315
I332
sVreflection
p316
I4536
sVsomewhere
p317
I75
sVbringing
p318
I52
sVfix
p319
I335
sVtactically
p320
I3193
sVcla
p321
I336
sVinterfere
p322
I4365
sVcrew
p323
I943
sVdestroyed
p324
I7
sVjian
p325
I3978
sVphantom
p326
I3612
sVpersist
p327
I342
sVwhips
p328
I343
sVnobles
p329
I344
sVweeks
p330
I345
sVovercome
p331
I346
sVinventory
p332
I369
sVball
p333
I4518
sVthen
p334
I348
sVthem
p335
I349
sVbabies
p336
I351
sVcombination
p337
I352
sVdowns
p338
I353
sVsafe
p339
I354
sVscene
p340
I4106
sVbreak
p341
I355
sVpenetration
p342
I357
sVeffects
p343
I358
sVthey
p344
I359
sVcloser
p345
I4337
sVinterrupt
p346
I361
sVkilled
p347
I4583
sVyourself
p348
I1718
sVrental
p349
I363
sVbank
p350
I364
sVspecialty
p351
I3566
sVrumour
p352
I365
sVrepresents
p353
I366
sVelectro
p354
I367
sValex
p355
I368
sVdebut
p356
I370
sVarrested
p357
I371
sVl
p358
I372
sVdetroit
p359
I373
sVpakistanis
p360
I374
sVarrest
p361
I4585
sVgood
p362
I2800
sVvictory
p363
I375
sVeach
p364
I376
sVwent
p365
I377
sVbells
p366
I650
sVoperatives
p367
I379
sVside
p368
I380
sVbone
p369
I381
sVmean
p370
I382
sVperimeter
p371
I384
sVstations
p372
I4555
sVfinancial
p373
I385
sVevolve
p374
I386
sVcyberdyne
p375
I387
sVseries
p376
I388
sVinnocent
p377
I389
sVprinciples
p378
I390
sVdedicated
p379
I3808
sVcarry
p380
I1723
sVtaught
p381
I391
sVtrading
p382
I392
sVmagnets
p383
I506
sVforgot
p384
I395
sVlaboratory
p385
I396
sVdawn
p386
I397
sVextract
p387
I398
sVmessage
p388
I1725
sVwhip
p389
I400
sVfuss
p390
I401
sVby
p391
I3503
sVdriving
p392
I403
sVvideotape
p393
I404
sVgod
p394
I405
sVspecialist
p395
I2307
sVcameras
p396
I407
sVurbane
p397
I410
sVcontent
p398
I411
sVre
p399
I412
sVrare
p400
I4685
sVmalpractises
p401
I415
sVgot
p402
I416
sVhooker
p403
I417
sVforth
p404
I418
sVsmart
p405
I4593
sVturning
p406
I421
sVmarshall
p407
I4082
sVresume
p408
I424
sVveto
p409
I425
sVeternal
p410
I428
sVrevenge
p411
I429
sVfree
p412
I430
sVattitude
p413
I2764
sVthieves
p414
I4423
sVstarter
p415
I3860
sVencountering
p416
I161
sVtraining
p417
I1691
sVsensors
p418
I435
sVwanted
p419
I436
sVtortsia
p420
I439
sVate
p421
I2654
sVrecovering
p422
I441
sVcreated
p423
I442
sVstarts
p424
I444
sVkashmir
p425
I446
sVdays
p426
I447
sVpriorities
p427
I448
sVlocal
p428
I4279
sVcreates
p429
I449
sVflawless
p430
I450
sVlevels
p431
I3350
sVoppose
p432
I452
sVisn
p433
I453
sVsignature
p434
I454
sVuses
p435
I3158
sVtransaction
p436
I4534
sVfootsteps
p437
I457
sVoverdraft
p438
I4122
sVfuckin
p439
I459
sVboiler
p440
I907
sVrang
p441
I461
sValready
p442
I462
sVeconomists
p443
I464
sVgrade
p444
I466
sVreassure
p445
I470
sVbandages
p446
I471
sVhoot
p447
I272
sVstaying
p448
I4035
sVfantasy
p449
I473
sVinstruct
p450
I474
sVanother
p451
I475
sVwasn
p452
I476
sVmasterfully
p453
I478
sVhe
p454
I4760
sVbackwards
p455
I4820
sVten
p456
I2536
sVservice
p457
I2900
sVtheir
p458
I4128
sVtop
p459
I484
sVengagement
p460
I485
sVgirls
p461
I486
sVattack
p462
I4129
sVelevator
p463
I488
sVneeded
p464
I489
sVconfirming
p465
I490
sVmaster
p466
I491
sVtoo
p467
I492
sVordered
p468
I2026
sVjohn
p469
I493
sVdamaging
p470
I494
sVlisten
p471
I495
sVmurder
p472
I496
sVcollapse
p473
I497
sVgrandchildren
p474
I498
sVpit
p475
I4798
sVtyping
p476
I744
sVesoteric
p477
I502
sVtook
p478
I503
sVwisdom
p479
I504
sVcrawl
p480
I505
sVwhereby
p481
I914
sVbegins
p482
I508
sVchef
p483
I509
sVanxiety
p484
I510
sVtarget
p485
I512
sVshowed
p486
I513
sVhike
p487
I515
sVfairytale
p488
I516
sVhandcuffs
p489
I517
sVtree
p490
I518
sVmonarchies
p491
I519
sVidly
p492
I520
sVmatter
p493
I521
sVjongg
p494
I522
sVpersuade
p495
I523
sVfriend
p496
I1749
sVcharlie
p497
I525
sVbodyguards
p498
I526
sVcontribution
p499
I4531
sVhacking
p500
I527
sVfeeling
p501
I528
sVsolely
p502
I529
sVacquisition
p503
I531
sVbridge
p504
I532
sVdonkey
p505
I533
sVrequestpermission
p506
I534
sVskiils
p507
I536
sVran
p508
I537
sV10th
p509
I3213
sVmind
p510
I538
sVmine
p511
I539
sV98
p512
I540
sVspent
p513
I3363
sVtalking
p514
I542
sVnotlong
p515
I543
sVextorting
p516
I544
sVinventors
p517
I378
sVseen
p518
I547
sVseem
p519
I548
sVdared
p520
I3365
sVseek
p521
I550
sVtells
p522
I551
sValive
p523
I4638
sVray
p524
I552
sVforced
p525
I553
sVscraped
p526
I554
sVrelayed
p527
I556
sVresponsible
p528
I558
sVdivulge
p529
I559
sVhailway
p530
I560
sVthieving
p531
I1756
sVrecommended
p532
I562
sVmaterials
p533
I563
sVniece
p534
I564
sVforces
p535
I565
sVhatch
p536
I393
sVrider
p537
I569
sVtunnels
p538
I570
sVcircles
p539
I571
sVblue
p540
I1333
sVblackmailer
p541
I573
sVnobody
p542
I574
sVieft
p543
I575
sVstiii
p544
I3471
sVshall
p545
I578
sVobject
p546
I580
sVquit
p547
I4416
sVcassettes
p548
I581
sVanatomy
p549
I582
sVclears
p550
I3370
sVregular
p551
I584
sVgermany
p552
I585
sValan
p553
I1760
sVletter
p554
I587
sVentry
p555
I3579
sVexplosives
p556
I590
sVmaria
p557
I591
sVdummy
p558
I592
sVassisting
p559
I593
sVdon
p560
I594
sVobservation
p561
I595
sVdom
p562
I596
sVflor
p563
I597
sVprofessor
p564
I598
sVdiai
p565
I2558
sVm
p566
I600
sVdog
p567
I601
sVdod
p568
I602
sVdefinitely
p569
I604
sVaunt
p570
I605
sVdeeply
p571
I2559
sVepa
p572
I4571
sVresponded
p573
I609
sVcame
p574
I610
sVrenting
p575
I3666
sVsaying
p576
I612
sVbomb
p577
I613
sVcontacted
p578
I614
sVhunger
p579
I615
sVmeetings
p580
I616
sVqueen
p581
I1048
sVnominated
p582
I620
sVending
p583
I621
sVprix
p584
I622
sVattempts
p585
I623
sVshowing
p586
I3802
sVgauge
p587
I624
sVparticipate
p588
I625
sVearth
p589
I626
sVschmid
p590
I629
sVmake
p591
I880
sVtoast
p592
I631
sV1547
p593
I632
sVtouches
p594
I633
sVbusy
p595
I634
sVproposed
p596
I635
sVheadline
p597
I636
sVcousins
p598
I637
sVexplain
p599
I638
sVdebts
p600
I639
sVneighs
p601
I640
sVthan
p602
I1769
sVclosely
p603
I3961
sVbush
p604
I644
sVstabbing
p605
I646
sVfolks
p606
I647
sVannounce
p607
I648
sVrice
p608
I649
sVwearing
p609
I651
sVdo
p610
I652
sVmixture
p611
I653
sVsunglasses
p612
I3538
sVestablishes
p613
I655
sVdi
p614
I656
sVceii
p615
I659
sVde
p616
I660
sVwatch
p617
I661
sV13
p618
I2334
sVpreferred
p619
I663
sViate
p620
I664
sVgeek
p621
I665
sVguatemala
p622
I666
sVnew
p623
I105
sVreport
p624
I669
sVfrying
p625
I670
sVinterrogated
p626
I671
sVdr
p627
I672
sVlearned
p628
I2565
sVcomply
p629
I674
sV14
p630
I1777
sVruns
p631
I717
sVcountries
p632
I679
sVsheltered
p633
I347
sVboyf
p634
I3560
sVpatch
p635
I802
sVreload
p636
I681
sVbad
p637
I682
sVarchitecture
p638
I684
sVrelease
p639
I686
sVsteal
p640
I688
sVgotta
p641
I1782
sVears
p642
I691
sVfait
p643
I692
sVethical
p644
I693
sVdisaster
p645
I694
sVhabit
p646
I695
sVimitate
p647
I696
sVreported
p648
I698
sValterations
p649
I699
sVrecieve
p650
I701
sVdepends
p651
I702
sVdecided
p652
I703
sVresult
p653
I704
sVfail
p654
I707
sVmiserable
p655
I708
sVtechnicals
p656
I709
sVmidst
p657
I710
sVbest
p658
I711
sVsubject
p659
I712
sVbrazil
p660
I713
sV00
p661
I714
sVsaid
p662
I715
sVambitions
p663
I718
sVlots
p664
I719
sVaway
p665
I720
sVrings
p666
I722
sVyoursituation
p667
I3006
sVupgraded
p668
I3226
sVclamped
p669
I3168
sVmud
p670
I725
sVbelicoso
p671
I726
sVprotected
p672
I909
sVfinger
p673
I728
sVcooperation
p674
I729
sVhopefully
p675
I730
sVmum
p676
I731
sVsorts
p677
I732
sVwarrior
p678
I733
sVwe
p679
I734
sVnever
p680
I735
sVterms
p681
I736
sVfiii
p682
I737
sVothic
p683
I738
sVnature
p684
I739
sVsmelled
p685
I608
sVphysicist
p686
I339
sVboss
p687
I743
sVsoutheast
p688
I1820
sVharvard
p689
I745
sVwear
p690
I746
sVrecent
p691
I3357
sVcontamination
p692
I747
sVdedication
p693
I748
sVnews
p694
I749
sVdebt
p695
I750
sVabsorbent
p696
I753
sVsuggested
p697
I754
sVreceived
p698
I755
sVprotect
p699
I756
sVaccident
p700
I757
sVsacrificing
p701
I758
sVmet
p702
I760
sVcountry
p703
I761
sVill
p704
I762
sVcup
p705
I2607
sViilegal
p706
I827
sVagainst
p707
I765
sVherself
p708
I4154
sVplayers
p709
I766
sVlayered
p710
I767
sVbrag
p711
I768
sVplanned
p712
I769
sVhated
p713
I3400
sVquite
p714
I1680
sVrequests
p715
I771
sVasked
p716
I772
sVnegotiation
p717
I774
sVand
p718
I1794
sVpresumably
p719
I776
sVgwen
p720
I777
sVtough
p721
I778
sVvein
p722
I4839
sVjosh
p723
I779
sVexcess
p724
I2581
sVseizure
p725
I782
sVwhisper
p726
I4788
sVunprotected
p727
I784
sVwritten
p728
I4347
sVinitiative
p729
I785
sVamobarbital
p730
I2583
sVloaded
p731
I787
sV250
p732
I788
sVtrust
p733
I789
sVspeak
p734
I792
sVgratitude
p735
I793
sVlighthouse
p736
I795
sVpetty
p737
I796
sVinvestors
p738
I1799
sVbeef
p739
I798
sVsource
p740
I3406
sVresende
p741
I800
sVropes
p742
I801
sVthree
p743
I803
sVbeen
p744
I804
sVquickly
p745
I805
sVcommission
p746
I806
sVbeer
p747
I807
sVmuch
p748
I808
sVdont
p749
I2919
sVinterest
p750
I809
sVbasic
p751
I810
sVexpected
p752
I811
sVsteamcar
p753
I4394
sVcelebration
p754
I812
sVcounterattack
p755
I813
sVduties
p756
I814
sVthrew
p757
I1805
sVdry
p758
I816
sVlife
p759
I817
sVfamilies
p760
I818
sVeasy
p761
I819
sVeastern
p762
I820
sVdrugs
p763
I821
sVgidley
p764
I4181
sVconcerning
p765
I822
sVmadhouse
p766
I823
sVargument
p767
I1802
sVplaces
p768
I4766
sVdave
p769
I825
sVlift
p770
I826
sValley
p771
I1803
sVpersonally
p772
I6
sVcatch
p773
I830
sVworked
p774
I831
sVvoices
p775
I1804
sVchill
p776
I833
sVapplied
p777
I834
sVsave
p778
I835
sVtank
p779
I836
sVsly
p780
I837
sVtang
p781
I839
sVlaunches
p782
I840
sVcastro
p783
I842
sVair
p784
I658
sVugly
p785
I844
sVnear
p786
I96
sVain
p787
I846
sVsuppose
p788
I847
sVstopping
p789
I849
sVproperty
p790
I850
sVk
p791
I851
sVlaunched
p792
I852
sVmistake
p793
I853
sVveronica
p794
I854
sVseven
p795
I855
sVpyramid
p796
I856
sVchopsticks
p797
I4290
sVplayed
p798
I857
sVis
p799
I858
sVkeller
p800
I4186
sVit
p801
I859
sVsting
p802
I4486
sVii
p803
I861
sVshame
p804
I862
sVstraits
p805
I864
sVbrake
p806
I865
sVil
p807
I866
sVwaddell
p808
I867
sVin
p809
I868
sVexile
p810
I869
sVtrusted
p811
I872
sVif
p812
I873
sVgrown
p813
I874
sVcontaining
p814
I26
sVemergency
p815
I3420
sVsoldier
p816
I2595
sVperform
p817
I878
sVthings
p818
I879
sVrealizing
p819
I1360
sVauthorise
p820
I881
sVwound
p821
I838
sVamount
p822
I2596
sVwho
p823
I4220
sVcomplex
p824
I886
sVsplit
p825
I887
sVunfortunate
p826
I888
sVapcs
p827
I889
sVseveral
p828
I890
sVconfronting
p829
I891
sVcapacities
p830
I3423
sVeuropean
p831
I893
sVunharmed
p832
I894
sVfairly
p833
I895
sVsatellite
p834
I896
sVraid
p835
I897
sVfiirst
p836
I898
sVrotor
p837
I4062
sVnod
p838
I4504
sVkiiled
p839
I900
sVpick
p840
I2600
sVhang
p841
I902
sVrefit
p842
I903
sVevil
p843
I904
sVhand
p844
I905
sVfuse
p845
I906
sVsurveilling
p846
I460
sVownership
p847
I908
sVsrinagar
p848
I479
sVopportunity
p849
I910
sV72163427
p850
I61
sVkid
p851
I912
sVkept
p852
I913
sVlucas
p853
I507
sVmatters
p854
I3426
sVservos
p855
I917
sVhumble
p856
I918
sVsuffering
p857
I3427
sVinherit
p858
I920
sVcamcorder
p859
I2604
sVcocksucking
p860
I922
sVcontact
p861
I923
sVgreatest
p862
I924
sVqualities
p863
I576
sVepi
p864
I1270
sVclaims
p865
I927
sVthe
p866
I928
sV800
p867
I929
sVcorporate
p868
I930
sVyours
p869
I931
sVdipshit
p870
I932
sVleft
p871
I933
sVautobahn
p872
I934
sVopinions
p873
I935
sVprotocol
p874
I936
sVbackground
p875
I987
sVjust
p876
I938
sVunemployment
p877
I939
sVrpgs
p878
I940
sVphoto
p879
I941
sVwarheads
p880
I3731
sVaside
p881
I1822
sVassigned
p882
I945
sVdisguise
p883
I946
sVgoggles
p884
I947
sVidentify
p885
I948
sVtransporting
p886
I882
sVhuman
p887
I950
sVfacts
p888
I951
sVyep
p889
I952
sVyes
p890
I953
sVgunner
p891
I4203
sVyet
p892
I954
sVelectronically
p893
I955
sVchechnya
p894
I957
sVinstance
p895
I4204
sVdevaluation
p896
I959
sVmerits
p897
I4332
sVhad
p898
I961
sVrelatives
p899
I4205
sVpassive
p900
I962
sVshout
p901
I963
sVbelongs
p902
I964
sVtransformed
p903
I965
sVboard
p904
I966
sVbeloved
p905
I967
sVprison
p906
I968
sVhas
p907
I970
sVhumanity
p908
I971
sVtrashed
p909
I972
sVdesignate
p910
I884
sVshoulder
p911
I2140
sVusable
p912
I975
sVops
p913
I978
sVcapt
p914
I979
sVbreaks
p915
I980
sVlooks
p916
I4318
sVpossible
p917
I981
sVobjective
p918
I1827
sVsupervisors
p919
I984
sVdiscreet
p920
I985
sVbastards
p921
I986
sVbirth
p922
I937
sVdestroy
p923
I1828
sVjudge
p924
I988
sVdreamt
p925
I989
sVunique
p926
I991
sVburnt
p927
I992
sVretreat
p928
I1282
sVapart
p929
I994
sVdesire
p930
I995
sVcounty
p931
I996
sVgift
p932
I998
sViead
p933
I999
sV54
p934
I1000
sV56
p935
I1001
sV51
p936
I1002
sVzoom
p937
I1139
sV53
p938
I1004
sV52
p939
I1005
sVsecurities
p940
I1006
sVremind
p941
I1007
sVpavement
p942
I1008
sVsteps
p943
I1009
sVofficer
p944
I1010
sVnight
p945
I1011
sVhung
p946
I1012
sVsecurity
p947
I1013
sVportuguese
p948
I1015
sVbeneficial
p949
I1016
sVright
p950
I1017
sVclube
p951
I1105
sVdeal
p952
I1019
sVpeople
p953
I1020
sVstaff
p954
I4261
sVanimals
p955
I3864
sVdeaf
p956
I1023
sVsomehow
p957
I1024
sVdead
p958
I1025
sVunnecessary
p959
I1003
sVborn
p960
I1027
sVintern
p961
I1028
sVsure
p962
I1836
sVscrabble
p963
I1030
sVescape
p964
I1031
sVdear
p965
I1032
sVpain
p966
I1837
sVharassment
p967
I1034
sVenemies
p968
I1037
sVdenies
p969
I1038
sVequal
p970
I4385
sVdense
p971
I1039
sVfor
p972
I1040
sVdropping
p973
I3260
sVunavoidable
p974
I1043
sVfox
p975
I1044
sVmicrowave
p976
I1256
sVconfiirm
p977
I1046
sVeverything
p978
I1047
sVaying
p979
I1277
sVhonoured
p980
I1050
sVieak
p981
I1051
sVtreadmill
p982
I1052
sVcnn
p983
I1053
sVdrink
p984
I4521
sVexpand
p985
I4532
sVcore
p986
I1055
sVcolumbus
p987
I1056
sVsherman
p988
I1840
sVmillimetres
p989
I1059
sVburn
p990
I1061
sVdisappeared
p991
I1062
sVdiscount
p992
I1063
sVseiling
p993
I1064
sVplc
p994
I1065
sVbolt
p995
I1066
sVdefensive
p996
I1067
sVlosing
p997
I1068
sVpln
p998
I1069
sVpost
p999
I1070
sVcaskets
p1000
I1071
sVsuper
p1001
I1072
sVterminated
p1002
I4720
sVtakes
p1003
I2623
sVplug
p1004
I1074
sVterminators
p1005
I1076
sVacquire
p1006
I4144
sVmonths
p1007
I1078
sVo
p1008
I1080
sValexandre
p1009
I3451
sVdinner
p1010
I1082
sVdespair
p1011
I1083
sVensure
p1012
I1084
sVafternoon
p1013
I1085
sVdone
p1014
I2929
sVown
p1015
I4701
sVconnected
p1016
I4005
sVefforts
p1017
I1087
sVslightly
p1018
I1088
sVhospital
p1019
I1089
sVthis
p1020
I3868
sVraised
p1021
I1090
sVindians
p1022
I1260
sVthermostat
p1023
I1092
sVpresence
p1024
I1093
sVwasting
p1025
I1094
sVdyson
p1026
I1095
sVhoneymoon
p1027
I1096
sVcraft
p1028
I4849
sVdelighted
p1029
I1097
sVson
p1030
I1098
sVdown
p1031
I1099
sVrespectable
p1032
I1100
sVdeai
p1033
I1101
sVmarshals
p1034
I1102
sVcoastal
p1035
I1103
sVwrap
p1036
I1104
sVhonored
p1037
I273
sVinterrupted
p1038
I3947
sVeast
p1039
I1106
sVrely
p1040
I1678
sVamerica
p1041
I1851
sVcrowd
p1042
I1109
sVreal
p1043
I3306
sVsodium
p1044
I2780
sVindispensable
p1045
I960
sVwad
p1046
I1111
sVlegislation
p1047
I1112
sVconspiring
p1048
I2632
sVls
p1049
I3990
sVfight
p1050
I1114
sVstuck
p1051
I1115
sVsydney
p1052
I4657
sVfought
p1053
I1117
sVeditor
p1054
I1118
sVway
p1055
I1119
sVgreatness
p1056
I1120
sVmusic
p1057
I1121
sVhenry
p1058
I4248
sVwas
p1059
I1122
sVwar
p1060
I1123
sVlaunching
p1061
I1788
sVtherefore
p1062
I1125
sVhead
p1063
I1126
sViifesaver
p1064
I4708
sVform
p1065
I1127
sVoffer
p1066
I1128
sVsomething
p1067
I3895
sVsome
p1068
I3459
sVbecoming
p1069
I1130
sVforever
p1070
I1853
sViittle
p1071
I1133
sV26th
p1072
I1134
sVfailure
p1073
I1856
sVheat
p1074
I1136
sVneedles
p1075
I1137
sVuncle
p1076
I1138
sVlnvestimentos
p1077
I1140
sVfastest
p1078
I3958
sVremoved
p1079
I1142
sVtrue
p1080
I1143
sVfort
p1081
I1144
sVcongratulations
p1082
I1145
sVcylinders
p1083
I1147
sVunderstood
p1084
I3461
sVassessment
p1085
I1149
sVinside
p1086
I1150
sVmilligrams
p1087
I1151
sVattached
p1088
I1152
sVbargain
p1089
I1153
sVuntil
p1090
I1154
sVcrystal
p1091
I1155
sVeconomic
p1092
I3463
sVtorturing
p1093
I1158
sVatto
p1094
I1159
sVmeters
p1095
I1941
sVdaddy
p1096
I1162
sViist
p1097
I1163
sVmails
p1098
I2012
sVpromises
p1099
I1165
sVmedication
p1100
I1166
sVlately
p1101
I4814
sVestonia
p1102
I1167
sVclassic
p1103
I1168
sVfury
p1104
I1169
sVcovert
p1105
I45
sVcop
p1106
I4438
sVcovers
p1107
I1171
sVevidence
p1108
I1172
sVexist
p1109
I1173
sVpromised
p1110
I1174
sVprayer
p1111
I1175
sVrequest
p1112
I4236
sVfloating
p1113
I1176
sVannoying
p1114
I4770
sVcheck
p1115
I1178
sVshit
p1116
I1179
sVphysical
p1117
I1180
sVpipe
p1118
I4239
sVvista
p1119
I1182
sVengines
p1120
I4686
sVcommunis
p1121
I1183
sVdying
p1122
I1184
sVfloor
p1123
I1185
sVagreeing
p1124
I1186
sVna
p1125
I1187
sVcommercials
p1126
I1188
sVstake
p1127
I1189
sVwhen
p1128
I1190
sVhanded
p1129
I1191
sVreality
p1130
I1192
sVtil
p1131
I1193
sVsetting
p1132
I1194
sVrepublic
p1133
I1195
sVvicodin
p1134
I1196
sVambitious
p1135
I1197
sVpapers
p1136
I1198
sVtest
p1137
I1199
sVtie
p1138
I1200
sVconfusing
p1139
I1202
sVnt
p1140
I1203
sVroll
p1141
I1204
sVpicture
p1142
I1206
sVfaction
p1143
I1207
sVdies
p1144
I1209
sVwhy
p1145
I4231
sVfootball
p1146
I1210
sVcriticai
p1147
I3702
sVfell
p1148
I1212
sVinvested
p1149
I1213
sVprofessional
p1150
I1868
sVauthorities
p1151
I1215
sVhumor
p1152
I1216
sVentrust
p1153
I1217
sVaware
p1154
I1218
sVweekend
p1155
I1219
sVdied
p1156
I1221
sVmacabe
p1157
I2349
sVbillion
p1158
I1223
sVgrief
p1159
I1224
sVlonger
p1160
I1225
sVbullet
p1161
I1226
sVphone
p1162
I197
sVassume
p1163
I1228
sVtelescopic
p1164
I1229
sVpsychopath
p1165
I3609
sVvigorously
p1166
I1230
sVshoving
p1167
I4405
sVmall
p1168
I2674
sVtogether
p1169
I1232
sVbeds
p1170
I1233
sVeliminate
p1171
I3482
sVloyal
p1172
I1234
sVtima
p1173
I1235
sVreception
p1174
I1236
sVteeth
p1175
I1237
sVpush
p1176
I1238
sVserious
p1177
I1239
sVbackward
p1178
I1240
sVprofits
p1179
I1242
sVhope
p1180
I4280
sVprecise
p1181
I1872
sVforlock
p1182
I4156
sVmanaged
p1183
I1245
sVchain
p1184
I1246
sVwhoever
p1185
I1247
sVdance
p1186
I1248
sVrob
p1187
I1249
sVactivated
p1188
I1250
sVfocus
p1189
I360
sVinvent
p1190
I1252
sVwiil
p1191
I1253
sS'EOS'
p1192
I1
sVmanager
p1193
I1254
sVmile
p1194
I1255
sVstories
p1195
I4777
sVcomments
p1196
I1045
sVgrateful
p1197
I1257
sVskin
p1198
I1258
sVbattle
p1199
I1259
sVconvoy
p1200
I3056
sVchair
p1201
I1261
sVhole
p1202
I1263
sVmountaln
p1203
I1264
sVrow
p1204
I1265
sVcertainly
p1205
I1266
sVjma
p1206
I1267
sVdepend
p1207
I1268
sVzone
p1208
I1269
sVfreelance
p1209
I1271
sVfather
p1210
I1272
sVpen
p1211
I3480
sV0
p1212
I2624
sVcharge
p1213
I168
sVasking
p1214
I1049
sVsoothes
p1215
I2639
sVidealist
p1216
I1279
sVsuffered
p1217
I1280
sVcircumstances
p1218
I1281
sVsouthwest
p1219
I1478
sVshoot
p1220
I207
sVsupported
p1221
I4250
sVstring
p1222
I1286
sVadvantage
p1223
I1287
sVbanco
p1224
I4716
sVscotty
p1225
I118
sVnone
p1226
I2665
sVskynet
p1227
I4334
sVchoice
p1228
I1290
sVvegas
p1229
I1291
sVmicroprocessors
p1230
I1292
sVtanks
p1231
I1294
sVadvised
p1232
I1295
sVcook
p1233
I1296
sVlocked
p1234
I208
sVtrouble
p1235
I1298
sVblast
p1236
I1299
sVroving
p1237
I1300
sVminute
p1238
I1301
sVcool
p1239
I1302
sV1700
p1240
I1303
sVperceived
p1241
I1304
sVdio
p1242
I1305
sVimpressive
p1243
I1306
sVpresented
p1244
I1307
sVdid
p1245
I1308
sVdie
p1246
I1309
sVfragile
p1247
I283
sVgun
p1248
I1312
sVleave
p1249
I1313
sVunessential
p1250
I1314
sVsettle
p1251
I1315
sVteam
p1252
I1316
sVquick
p1253
I1317
sVguy
p1254
I1318
sVhandcuffed
p1255
I4609
sVdip
p1256
I1320
sVround
p1257
I1321
sVlloyd
p1258
I4257
sVphotograph
p1259
I4159
sVprevent
p1260
I1323
sVolympic
p1261
I1324
sVrevolution
p1262
I1325
sVsays
p1263
I1326
sVregret
p1264
I1327
sVfindings
p1265
I1328
sVmasklov
p1266
I1329
sVdealing
p1267
I1330
sVdiscover
p1268
I1331
sVsign
p1269
I1332
sVroof
p1270
I1334
sVtakeoff
p1271
I1335
sVrun
p1272
I3491
sVbozo
p1273
I3156
sVtargets
p1274
I1337
sVsubstitute
p1275
I1338
sVsnipers
p1276
I1339
sVstands
p1277
I1340
sVsomalis
p1278
I1341
sVassistance
p1279
I1342
sVfavour
p1280
I1344
sVshares
p1281
I1345
sVuniform
p1282
I1346
sVcurrent
p1283
I1347
sVsuspect
p1284
I1349
sVsomalia
p1285
I3115
sVgoes
p1286
I1351
sVreply
p1287
I1353
sVfalling
p1288
I1354
sVappeal
p1289
I1355
sVinternationai
p1290
I1356
sVfilled
p1291
I1357
sVsatisfy
p1292
I1358
sVcollateral
p1293
I1359
sVexplosion
p1294
I1361
sVms
p1295
I220
sVchicane
p1296
I1363
sVguardian
p1297
I1365
sVinauguration
p1298
I1366
sVmakeup
p1299
I1367
sVfrench
p1300
I1368
sVunderstanding
p1301
I1369
sVwater
p1302
I1370
sVcorporation
p1303
I4808
sVsealed
p1304
I4141
sVgroups
p1305
I1371
sVaddress
p1306
I1372
sVdeceit
p1307
I1373
sValong
p1308
I1374
sVteaches
p1309
I1375
sVappears
p1310
I1376
sVchange
p1311
I1377
sVwait
p1312
I1378
sVbox
p1313
I1379
sVboy
p1314
I1380
sVincoming
p1315
I511
sVflames
p1316
I783
sVbattling
p1317
I1384
sVbrilliant
p1318
I530
sVdiffiicult
p1319
I1386
sVwherever
p1320
I1387
sVieaving
p1321
I1389
sVproud
p1322
I1390
sVdetonate
p1323
I1391
sVspheres
p1324
I1392
sVineffective
p1325
I1393
sVcrumbled
p1326
I1394
sVdiagnosed
p1327
I1395
sVsuggestion
p1328
I1396
sVusually
p1329
I1397
sVbob
p1330
I1398
sVhistory
p1331
I2686
sVthorazine
p1332
I1400
sVtaipei
p1333
I1401
sVstew
p1334
I3499
sVstaph
p1335
I3378
sVbeautiful
p1336
I2687
sVlove
p1337
I1404
sVsanta
p1338
I3500
sVaidan
p1339
I1406
sVextra
p1340
I1407
sVmadman
p1341
I4269
sVchaired
p1342
I1409
sVprefer
p1343
I1410
sVregeneration
p1344
I1411
sVbloody
p1345
I1412
sVsincerely
p1346
I1413
sVbetraying
p1347
I1414
sVbrokerage
p1348
I1415
sVemployer
p1349
I4163
sVcrisis
p1350
I1417
sVmarket
p1351
I1418
sVred
p1352
I4061
sVeverybody
p1353
I1419
sVbuilet
p1354
I1420
sVor
p1355
I3948
sVwealth
p1356
I1421
sVworking
p1357
I1422
sVprove
p1358
I1423
sVsake
p1359
I1424
sVpositive
p1360
I1425
sVangry
p1361
I1426
sVscan
p1362
I1427
sVvisit
p1363
I1428
sVtightly
p1364
I1429
sVunannounced
p1365
I3367
sVlive
p1366
I1431
sVhandler
p1367
I1432
sVwondering
p1368
I1434
sVhomestretch
p1369
I1435
sVblack
p1370
I1900
sVassociated
p1371
I3593
sVprep
p1372
I1437
sVtoday
p1373
I1438
sVcommissioner
p1374
I1439
sVartillery
p1375
I1440
sVfierce
p1376
I4528
sVclub
p1377
I1441
sVorganized
p1378
I3734
sVclaus
p1379
I1443
sVpsychiatric
p1380
I3935
sVclients
p1381
I3871
sVdowntown
p1382
I1444
sVteaser
p1383
I1446
sVdrown
p1384
I1447
sVcommissioned
p1385
I1448
sVvirtue
p1386
I1449
sVemployed
p1387
I4333
sVbehalf
p1388
I1452
sVfly
p1389
I1453
sVflesh
p1390
I4560
sVdouche
p1391
I1455
sVanything
p1392
I3510
sVdefeats
p1393
I1457
sVjulius
p1394
I1458
sVcar
p1395
I1459
sVpretend
p1396
I1460
sVsoul
p1397
I1461
sVbelieves
p1398
I1462
sVpurge
p1399
I1463
sVlabeled
p1400
I1464
sVbucks
p1401
I4487
sVvalues
p1402
I1465
sVcan
p1403
I1466
sVsky
p1404
I4580
sVbelieved
p1405
I1467
sVmaking
p1406
I1468
sVarrive
p1407
I1469
sVcompleting
p1408
I3512
sVunconditional
p1409
I1470
sVattain
p1410
I2697
sVspy
p1411
I1472
sVcrazy
p1412
I1473
sVbarbarians
p1413
I275
sVdegenerate
p1414
I1475
sVfigure
p1415
I1476
sVlobbying
p1416
I1477
sVawesome
p1417
I1014
sVfuck
p1418
I1480
sVagent
p1419
I1481
sVtopic
p1420
I1482
sVheard
p1421
I1483
sVbeils
p1422
I1484
sVabort
p1423
I1485
sVphrase
p1424
I1486
sVcounting
p1425
I1487
sVstole
p1426
I1488
sVenglish
p1427
I4401
sVpink
p1428
I1491
sVrays
p1429
I1493
sVprivatise
p1430
I4109
sVbankrupt
p1431
I1494
sVprocesslng
p1432
I1496
sVsuitcases
p1433
I2779
sVpoking
p1434
I1498
sVmagazine
p1435
I1499
sVwrite
p1436
I1500
sVtill
p1437
I73
sVsunday
p1438
I1502
sVcardinal
p1439
I1503
sVfourth
p1440
I1041
sVgenocide
p1441
I1506
sVspeaks
p1442
I1507
sVeconomy
p1443
I1508
sVundisciplined
p1444
I1510
sVunbelievable
p1445
I1511
sVlaundry
p1446
I1512
sVirrational
p1447
I1513
sVcoming
p1448
I2735
sVhuge
p1449
I2673
sVmay
p1450
I1515
sVmax
p1451
I1516
sVsacrifice
p1452
I1517
sVspot
p1453
I1519
sVlucky
p1454
I4291
sVcrashed
p1455
I1521
sVproduce
p1456
I1522
sVdesigned
p1457
I1523
sVmag
p1458
I1524
sVabdi
p1459
I716
sVsuch
p1460
I1527
sVheroes
p1461
I1528
sVguys
p1462
I1529
sVwagging
p1463
I1530
sVlifting
p1464
I1531
sVman
p1465
I1532
sVstress
p1466
I1533
sVcod
p1467
I4515
sVcrepe
p1468
I1534
sVneck
p1469
I557
sVliquid
p1470
I1536
sVhands
p1471
I4010
sVwhenever
p1472
I1538
sVmaybe
p1473
I1539
sVmade
p1474
I4763
sVtale
p1475
I1542
sVprovide
p1476
I1543
sVswitch
p1477
I1544
sVcannot
p1478
I1914
sVjail
p1479
I667
sVblock
p1480
I3521
sVhoo
p1481
I423
sVhassan
p1482
I1549
sVrunnin
p1483
I2075
sVsides
p1484
I3641
sVincrease
p1485
I1661
sVpulled
p1486
I1550
sVtalk
p1487
I1551
sVsd
p1488
I1552
sVexclusive
p1489
I1553
sVcomfort
p1490
I1555
sVneighbourhoods
p1491
I1556
sVshoes
p1492
I1557
sVglobe
p1493
I4734
sVseeing
p1494
I3523
sVlsn
p1495
I1559
sVvagrant
p1496
I1450
sVmainly
p1497
I1562
sVyears
p1498
I1563
sVcourse
p1499
I1565
sVshoed
p1500
I1566
sVrecoup
p1501
I1567
sVcuts
p1502
I1568
sVcold
p1503
I1569
sVstill
p1504
I1570
sVirene
p1505
I1571
sVbirds
p1506
I1572
sVjock
p1507
I1573
sVtore
p1508
I1574
sVavid
p1509
I1575
sVpolice
p1510
I1576
sVthank
p1511
I1577
sVneeding
p1512
I2905
sVtracks
p1513
I1578
sVinteresting
p1514
I1579
sVfacility
p1515
I1580
sVhot
p1516
I3794
sVplatform
p1517
I1584
sVwindow
p1518
I1585
sVahh
p1519
I4123
sVnsa
p1520
I3527
sVpolicy
p1521
I1587
sVsuspension
p1522
I463
sVmain
p1523
I1589
sVmaii
p1524
I1590
sVprisoners
p1525
I1591
sVtexas
p1526
I1592
sVhappened
p1527
I1593
sVnon
p1528
I1594
sVwithin
p1529
I3529
sVadjacent
p1530
I1241
sVbarron
p1531
I1597
sVcivilian
p1532
I4499
sVmatches
p1533
I1599
sVrattled
p1534
I1077
sVkiller
p1535
I1601
sVevacuation
p1536
I4057
sVsooner
p1537
I1602
sVnation
p1538
I1603
sVunderneath
p1539
I1604
sVmoron
p1540
I1605
sVqualified
p1541
I1606
sVconquer
p1542
I1607
sVsafari
p1543
I1608
sVgate
p1544
I419
sVnot
p1545
I1610
sVnow
p1546
I1611
sVshhh
p1547
I1124
sVnor
p1548
I1613
sVattorneys
p1549
I1614
sVname
p1550
I1615
sVstabilize
p1551
I1616
sVlies
p1552
I1617
sVservant
p1553
I1618
sVjames
p1554
I1619
sVdrop
p1555
I1621
sVdebating
p1556
I1622
sVcoagulation
p1557
I1623
sVrealise
p1558
I1625
sVh
p1559
I4307
sVentirely
p1560
I1627
sVquarter
p1561
I1628
sVcrash
p1562
I3999
sVrevere
p1563
I1629
sVlast
p1564
I4450
sVem
p1565
I1631
sVmarried
p1566
I4308
sVretrieve
p1567
I1632
sVsow
p1568
I414
sViast
p1569
I4727
sVreceipt
p1570
I1635
sVtreacherous
p1571
I1636
sVyeah
p1572
I1637
sVmanifests
p1573
I1638
sVfires
p1574
I1639
sVcatching
p1575
I1640
sVex
p1576
I1642
sVbegun
p1577
I1643
sVyear
p1578
I1644
sVhappen
p1579
I1646
sVev
p1580
I535
sVdisasters
p1581
I1648
sVsurprise
p1582
I2515
sVintended
p1583
I2143
sVliving
p1584
I1650
sVshown
p1585
I1651
sVbly
p1586
I1652
sVopened
p1587
I1653
sVbrags
p1588
I1654
sVspace
p1589
I1655
sVprofit
p1590
I1656
sVhaste
p1591
I1657
sVsquared
p1592
I4
sVfactory
p1593
I1659
sVabide
p1594
I1660
sVlooking
p1595
I20
sVseriously
p1596
I1662
sVstupid
p1597
I1928
sVimperative
p1598
I1664
sVdelusional
p1599
I3536
sVinternet
p1600
I1666
sVsuggesting
p1601
I1667
sVroger
p1602
I1929
sVreceiving
p1603
I56
sVcorrect
p1604
I1671
sVstat
p1605
I4824
sVsuperiors
p1606
I1672
sVcars
p1607
I1675
sVdispatched
p1608
I111
sVseventh
p1609
I1677
sVpossibility
p1610
I1679
sVdiagnostic
p1611
I794
sVcut
p1612
I3397
sVflyer
p1613
I142
sVcomplicated
p1614
I1682
sVdemanding
p1615
I1683
sVbesides
p1616
I152
sVobligation
p1617
I1685
sVcard
p1618
I1687
sVcare
p1619
I1688
sVadvance
p1620
I1690
sViunatics
p1621
I33
sVcouldn
p1622
I1692
sVwaiter
p1623
I1693
sVwhere
p1624
I1932
sVfabric
p1625
I3464
sVpunk
p1626
I1695
sVcastelo
p1627
I1696
sVhonest
p1628
I1697
sVmotion
p1629
I1698
sVturn
p1630
I251
sVarchibald
p1631
I1701
sVplace
p1632
I1702
sVgordon
p1633
I270
sVinvitation
p1634
I1704
sVyourlocation
p1635
I281
sVview
p1636
I1706
sVsupport
p1637
I1110
sVammo
p1638
I1709
sVfirst
p1639
I309
sVblind
p1640
I1711
sVconfiirming
p1641
I1712
sVflying
p1642
I1442
sVguessing
p1643
I3671
sVspoken
p1644
I1715
sVquestion
p1645
I3546
sVwave
p1646
I3706
sVrachel
p1647
I350
sVlraq
p1648
I4844
sVone
p1649
I362
sVamericans
p1650
I1719
sVlong
p1651
I3547
sVdirectly
p1652
I1721
sVspanish
p1653
I1722
sVeversmann
p1654
I1700
sVimpossible
p1655
I1724
sVring
p1656
I399
sVopen
p1657
I1726
sVtomorrow
p1658
I1727
sVsize
p1659
I1728
sVrented
p1660
I1729
sVcity
p1661
I1730
sVgiven
p1662
I1451
sVchecked
p1663
I1732
sVpersonalities
p1664
I1733
sVdistrict
p1665
I1734
sVmeaningful
p1666
I751
sVcaught
p1667
I1737
sVslept
p1668
I1738
sVeurope
p1669
I4319
sViab
p1670
I1741
sVanyone
p1671
I1742
sVreturns
p1672
I1743
sV2
p1673
I1744
sValfred
p1674
I1745
sVconvention
p1675
I501
sVwhite
p1676
I1747
sVfilter
p1677
I1748
sVspeaking
p1678
I524
sVgives
p1679
I1750
sVa
p1680
I2740
sVeyes
p1681
I1752
sVhug
p1682
I1753
sVmostly
p1683
I1754
sVthat
p1684
I1755
sVshawn
p1685
I432
sVseason
p1686
I566
sVmemo
p1687
I1758
sVhuh
p1688
I1759
sVartifact
p1689
I586
sVcops
p1690
I1762
sVshort
p1691
I2742
sVbutt
p1692
I1765
sVtehran
p1693
I1766
sVeliminated
p1694
I1767
sVcopy
p1695
I1768
sVappreciated
p1696
I977
sVinfiltrate
p1697
I1770
sVboyfriend
p1698
I228
sV11
p1699
I1525
sV10
p1700
I1773
sVtelevision
p1701
I1774
sV12
p1702
I1775
sV15
p1703
I1776
sVunfortunately
p1704
I675
sV17
p1705
I1778
sV16
p1706
I1779
sV19
p1707
I1780
sVrequire
p1708
I689
sVtransferred
p1709
I1783
sVcrossroads
p1710
I1784
sVsabotaged
p1711
I1785
sVfuture
p1712
I727
sVknives
p1713
I1787
sVwere
p1714
I1789
sVcollege
p1715
I1942
sVoutcome
p1716
I1763
sVindeed
p1717
I4275
sVrussia
p1718
I1792
sVsophia
p1719
I1793
sVshrimp
p1720
I2299
sVpre
p1721
I775
sVfiles
p1722
I3557
sVaddressing
p1723
I1796
sVprf
p1724
I1797
sVsan
p1725
I2877
sVangel
p1726
I797
sVturned
p1727
I1801
sVlocations
p1728
I824
sVslap
p1729
I828
sVsad
p1730
I832
sVsay
p1731
I1806
sVconspiracy
p1732
I1807
sVburied
p1733
I1809
sVanger
p1734
I1810
sVsar
p1735
I1811
sV1
p1736
I4546
sVrecover
p1737
I1812
sVpry
p1738
I139
sVany
p1739
I1814
sVsat
p1740
I1815
sVhumans
p1741
I4327
sVconfirmation
p1742
I3701
sV1o
p1743
I1816
sVdate
p1744
I1526
sVkiloton
p1745
I1817
sVefficient
p1746
I1818
sVwarriors
p1747
I1819
sVfucking
p1748
I3455
sVsending
p1749
I3275
sVforeigner
p1750
I1821
sVideas
p1751
I944
sVkinds
p1752
I4826
sVequipment
p1753
I1823
sVintends
p1754
I1824
sVpotential
p1755
I1825
sVtake
p1756
I1826
sVinterior
p1757
I983
sVtimers
p1758
I408
sVconcern
p1759
I1949
sVheal
p1760
I1831
sVchannel
p1761
I1832
sVwrench
p1762
I2751
sV200
p1763
I1834
sVbegin
p1764
I1835
sVprinter
p1765
I1029
sVprick
p1766
I1033
sVtrack
p1767
I1838
sVprice
p1768
I1839
sVknew
p1769
I1057
sVclearer
p1770
I1841
sVpaid
p1771
I1842
sVfalls
p1772
I1843
sVvisitors
p1773
I1844
sVassault
p1774
I1845
sVslowest
p1775
I205
sVimportantly
p1776
I1846
sVconnor
p1777
I1848
sVcomplaints
p1778
I1849
sVknee
p1779
I1850
sVbeth
p1780
I1108
sVprecludes
p1781
I1852
sVmuddle
p1782
I4003
sVrivals
p1783
I4724
sVoverwhelming
p1784
I4153
sVcuban
p1785
I1132
sVbeachfront
p1786
I1854
sVespecially
p1787
I1855
sVconsidered
p1788
I1857
sVadopt
p1789
I607
sVsteady
p1790
I1860
sVdrive
p1791
I243
sVmrs
p1792
I1177
sVways
p1793
I1953
sVwind
p1794
I1865
sVslaves
p1795
I1866
sVharvey
p1796
I1954
sVhear
p1797
I477
sVsenior
p1798
I1869
sVtypically
p1799
I1870
sVlaws
p1800
I1871
sVshop
p1801
I1244
sVwalking
p1802
I1874
sVshot
p1803
I1875
sVunassailable
p1804
I1876
sVshow
p1805
I1877
sVgerman
p1806
I1878
sVrecipe
p1807
I1288
sVhairpin
p1808
I1881
sVfifty
p1809
I483
sVdiscovered
p1810
I1883
sVfedor
p1811
I1884
sVdrawings
p1812
I1885
sVcorner
p1813
I1886
sVaggressive
p1814
I1887
sVmister
p1815
I1888
sVfifth
p1816
I1350
sVground
p1817
I1890
sVaint
p1818
I1891
sVfelismina
p1819
I1892
sVslow
p1820
I1893
sVchallenge
p1821
I3870
sVfiend
p1822
I3847
sVdick
p1823
I1895
sVpump
p1824
I1896
sVcrime
p1825
I1897
sVonly
p1826
I1898
sVgoing
p1827
I1899
sVbelieving
p1828
I1436
sVdeign
p1829
I1901
sVenthusiasm
p1830
I1902
sVblinds
p1831
I1903
sVcommies
p1832
I1905
sVcorrectly
p1833
I4349
sVget
p1834
I1908
sVhostage
p1835
I1501
sVassistant
p1836
I1910
sVlighten
p1837
I1911
sVhorrible
p1838
I1912
sVstruecker
p1839
I2551
sVkillers
p1840
I1545
sVlighter
p1841
I1915
sVprogress
p1842
I4351
sVstrafing
p1843
I1916
sVawaiting
p1844
I1917
sVneither
p1845
I4352
sVprime
p1846
I1919
sVreveal
p1847
I1920
sVregarding
p1848
I1921
sVlame
p1849
I3946
sVvengeance
p1850
I4224
sVprimual
p1851
I1923
sVdisagree
p1852
I4522
sVborrow
p1853
I1924
sVyield
p1854
I1925
sVail
p1855
I848
sVnaked
p1856
I1927
sVother
p1857
I4817
sVconundrum
p1858
I4421
sVmiles
p1859
I1663
sVyourpilot
p1860
I1668
sVthough
p1861
I3477
sVworries
p1862
I1930
sVfinishing
p1863
I1931
sVmogadishu
p1864
I1694
sVhusband
p1865
I1933
sVignored
p1866
I1934
sVdeclared
p1867
I1935
sVconcert
p1868
I1936
sVstation
p1869
I2944
sVseat
p1870
I1938
sVisabel
p1871
I1939
sVgangster
p1872
I1940
sVjos
p1873
I4358
sVasleep
p1874
I420
sVseal
p1875
I1800
sVapologies
p1876
I1944
sVsport
p1877
I1946
sVviolates
p1878
I1947
sVlnc
p1879
I1948
sVwonder
p1880
I1829
sVsuspects
p1881
I1950
sVdetect
p1882
I1951
sVrumours
p1883
I1970
sVfederal
p1884
I1863
sVjumped
p1885
I1867
sVreview
p1886
I1955
sVopening
p1887
I4361
sVrepresentatives
p1888
I1882
sVwhereabouts
p1889
I469
sV3
p1890
I1598
sVdiamonds
p1891
I1220
sVmandarin
p1892
I1961
sVgeometric
p1893
I1962
sVimpoliteness
p1894
I1963
sVacross
p1895
I1964
sVlimelight
p1896
I2774
sVnotice
p1897
I1937
sVcheckered
p1898
I1967
sVjobs
p1899
I4115
sVaugust
p1900
I1969
sVvertical
p1901
I1952
sVaii
p1902
I1973
sVscreen
p1903
I1974
sVplanes
p1904
I1975
sVstyle
p1905
I2776
sVcheap
p1906
I1880
sVkilling
p1907
I1978
sVblame
p1908
I1979
sVjo
p1909
I1980
sVcomm
p1910
I37
sVhurts
p1911
I1982
sVtua
p1912
I1983
sVoursignal
p1913
I1984
sVcome
p1914
I1985
sVundermine
p1915
I1986
sVtug
p1916
I1987
sVreaction
p1917
I1988
sVpanels
p1918
I1116
sVtalented
p1919
I1990
sVresides
p1920
I1991
sVtuck
p1921
I2080
sVmany
p1922
I1993
sVsleeps
p1923
I1994
sV23
p1924
I1736
sVquiet
p1925
I1997
sVcontract
p1926
I1998
sVenabling
p1927
I1999
sVpersonal
p1928
I333
sVs
p1929
I2001
sVconcentrate
p1930
I2002
sVworkplace
p1931
I2003
sVhelipad
p1932
I2004
sV9003
p1933
I1981
sVwheels
p1934
I2006
sVcomes
p1935
I2007
sVduty
p1936
I2008
sVamong
p1937
I4293
sVstretcher
p1938
I2010
sVafterwards
p1939
I2011
sVcolor
p1940
I2013
sVpot
p1941
I2197
sVauthenticity
p1942
I2015
sVpoly
p1943
I2016
sV60
p1944
I2017
sV61
p1945
I2018
sVpole
p1946
I2019
sV63
p1947
I2020
sVjammed
p1948
I577
sV65
p1949
I2022
sVlearning
p1950
I2023
sVbabbling
p1951
I2024
sV68
p1952
I2025
sVsupervisor
p1953
I969
sVwriting
p1954
I2027
sVames
p1955
I4374
sVnoisy
p1956
I3833
sVanyplace
p1957
I2029
sVsurvivors
p1958
I338
sVarts
p1959
I2031
sVteammate
p1960
I2033
sVdetails
p1961
I4818
sVcares
p1962
I603
sVstretch
p1963
I2035
sVwest
p1964
I2036
sVrebuild
p1965
I2037
sVinformed
p1966
I2038
sVvacation
p1967
I2039
sVmark
p1968
I2040
sVbreath
p1969
I2041
sVworkshop
p1970
I2042
sVdependable
p1971
I2043
sVdangers
p1972
I2044
sVhelicopter
p1973
I2045
sVprototype
p1974
I2046
sVhardly
p1975
I2047
sV500
p1976
I2048
sVsystems
p1977
I2789
sVengine
p1978
I2050
sVwonderful
p1979
I3898
sVdirection
p1980
I2051
sVeducated
p1981
I2052
sVspare
p1982
I2053
sVmonsieur
p1983
I2054
sVbusting
p1984
I2055
sVinfluence
p1985
I3598
sVthousand
p1986
I2057
sV400
p1987
I2058
sVinterpretations
p1988
I4378
sVwounds
p1989
I2060
sVreadings
p1990
I2061
sVphotos
p1991
I2062
sVrooftops
p1992
I2063
sVfigured
p1993
I4379
sVwake
p1994
I2065
sVminister
p1995
I2066
sVsuspected
p1996
I2068
sVbonjour
p1997
I2069
sVcareful
p1998
I2070
sVupstarts
p1999
I2071
sVformer
p2000
I2072
sVthose
p2001
I2073
sVpilot
p2002
I2074
sVsound
p2003
I561
sVmyself
p2004
I2076
sVdisconnected
p2005
I2077
sVthese
p2006
I2078
sVoperational
p2007
I4271
sVmount
p2008
I2079
sVworried
p2009
I1926
sVchinatown
p2010
I2081
sVchap
p2011
I3603
sVtrick
p2012
I2083
sVcast
p2013
I3479
sVpaulo
p2014
I4503
sVignition
p2015
I2085
sVresidence
p2016
I2422
sVnewspaper
p2017
I2088
sVsituation
p2018
I2089
sVpressure
p2019
I4674
sVbiiling
p2020
I2090
sVtaking
p2021
I4384
sVbeales
p2022
I4397
sVunderstand
p2023
I4851
sVaccompli
p2024
I2797
sVvest
p2025
I2094
sVpriests
p2026
I1995
sVpakistani
p2027
I4557
sVeventually
p2028
I685
sVsoil
p2029
I2096
sVambulance
p2030
I2097
sVcoffee
p2031
I2098
sVsleeping
p2032
I1433
sVmiddle
p2033
I2100
sVmcknight
p2034
I1864
sVfollies
p2035
I4690
sVivs
p2036
I2102
sVreturn
p2037
I2801
sVtechnology
p2038
I2104
sVworry
p2039
I2105
sVmovements
p2040
I2106
sVhelmet
p2041
I2107
sVdifferent
p2042
I2108
sVmissiles
p2043
I2109
sVdevelop
p2044
I2110
sVhandled
p2045
I3504
sVdoctor
p2046
I2111
sVpcls
p2047
I2112
sVmedia
p2048
I2113
sVgranted
p2049
I2114
sVmedic
p2050
I2115
sVsame
p2051
I2116
sVdealer
p2052
I297
sVgentlemen
p2053
I2118
sVfood
p2054
I2803
sVbusted
p2055
I4389
sVunderestimate
p2056
I1958
sVbuys
p2057
I2122
sVourposition
p2058
I2123
sVstruggling
p2059
I2124
sVdocument
p2060
I2125
sVpal
p2061
I2126
sVpan
p2062
I2127
sVdisappointment
p2063
I2128
sVweek
p2064
I2129
sVbackgrounds
p2065
I2247
sVfinish
p2066
I2130
sVclosest
p2067
I2132
sVsickness
p2068
I2133
sVnest
p2069
I2134
sVassist
p2070
I2135
sVdriver
p2071
I2136
sVbrandenburg
p2072
I4556
sVdirector
p2073
I2137
sVrunning
p2074
I2138
sVfruit
p2075
I2139
sVbarber
p2076
I1131
sVdelicate
p2077
I2141
sVstairwell
p2078
I790
sVrecaii
p2079
I3614
sVtotally
p2080
I2144
sVclogged
p2081
I3264
sVmentally
p2082
I2146
sVperfectly
p2083
I4134
sVcommemorate
p2084
I2147
sVtracking
p2085
I2149
sVcharges
p2086
I2150
sVno
p2087
I2151
sVlady
p2088
I2219
sVccs
p2089
I2153
sVwithout
p2090
I2155
sVcoordinate
p2091
I2156
sVmodel
p2092
I2157
sVreward
p2093
I2158
sVbodies
p2094
I2160
sVccb
p2095
I2161
sV215
p2096
I2162
sVnoah
p2097
I2163
sVbeing
p2098
I2165
sVgenerally
p2099
I697
sVarmour
p2100
I2167
sVadjustments
p2101
I2168
sVactions
p2102
I164
sVfoot
p2103
I2809
sVviolent
p2104
I2171
sVkill
p2105
I2172
sVgreetings
p2106
I2173
sVkilo
p2107
I2174
sVtouch
p2108
I2175
sVn
p2109
I843
sVspeed
p2110
I2176
sVcaptured
p2111
I2177
sVhalfway
p2112
I2178
sVblow
p2113
I2179
sVgather
p2114
I4133
sVdeath
p2115
I2181
sVstaging
p2116
I2182
sVmother
p2117
I926
sVthinking
p2118
I2184
sVconclude
p2119
I4403
sVseems
p2120
I2186
sVexcept
p2121
I340
sVcivil
p2122
I2188
sVconfirmed
p2123
I875
sVairfield
p2124
I2190
sVdicky
p2125
I2191
sVinterested
p2126
I2192
sV4
p2127
I2193
sVsamples
p2128
I2194
sVason
p2129
I2195
sVthoughts
p2130
I911
sVdicks
p2131
I2196
sVskies
p2132
I2198
sVkingdom
p2133
I455
sVshadows
p2134
I2200
sVholding
p2135
I706
sVkills
p2136
I2203
sVeasily
p2137
I3925
sVread
p2138
I2205
sVrejoin
p2139
I2206
sVgonna
p2140
I2209
sVdark
p2141
I2210
sVwarehouse
p2142
I2211
sVmoi
p2143
I2212
sVtraffic
p2144
I2213
sVmon
p2145
I2214
sVmom
p2146
I2215
sVtanto
p2147
I2216
sVcavern
p2148
I4184
sVworld
p2149
I2217
sVaccepted
p2150
I2218
sVmog
p2151
I645
sVbravery
p2152
I2221
sVintei
p2153
I2222
sVacute
p2154
I2223
sVmartyrs
p2155
I2224
sVfortune
p2156
I2225
sVintel
p2157
I3437
sVpounds
p2158
I2227
sVphotographs
p2159
I2228
sVsmell
p2160
I2229
sVbuddies
p2161
I2230
sV62
p2162
I2231
sVserver
p2163
I2232
sVcarl
p2164
I1684
sVbenefit
p2165
I2233
sVmoreno
p2166
I2234
sVeither
p2167
I2235
sVrobbery
p2168
I2236
sValways
p2169
I2237
sVanti
p2170
I2238
sVupside
p2171
I2239
sVpereira
p2172
I2240
sVagreeable
p2173
I3831
sVescudo
p2174
I4409
sVsharp
p2175
I2700
sVsatisfactory
p2176
I2244
sVclassified
p2177
I2364
sVtwombly
p2178
I2465
sVnaam
p2179
I1904
sVascend
p2180
I2249
sVeddie
p2181
I2251
sVerase
p2182
I3587
sVunsustainable
p2183
I4703
sVcowboys
p2184
I3597
sVimages
p2185
I2254
sV72
p2186
I3522
sVintact
p2187
I876
sVthinks
p2188
I2257
sVprovided
p2189
I2258
sVmotherfucker
p2190
I2884
sVslaughtering
p2191
I2259
sVconfirm
p2192
I2260
sVfrees
p2193
I2261
sVarriving
p2194
I4565
sVhighest
p2195
I4757
sVnooo
p2196
I2262
sVrecorded
p2197
I2263
sVreaily
p2198
I2825
sVlegal
p2199
I2264
sVescort
p2200
I2682
sVexit
p2201
I2268
sVprovides
p2202
I1495
sVforks
p2203
I2271
sVlncoming
p2204
I2272
sVknife
p2205
I2273
sVsevered
p2206
I2274
sVmeasuring
p2207
I2275
sVpissy
p2208
I2276
sVfelt
p2209
I9
sVbusiness
p2210
I2279
sVmare
p2211
I2280
sVseconds
p2212
I2281
sVsixth
p2213
I2282
sVcredits
p2214
I2283
sVjanelle
p2215
I3633
sVcontracts
p2216
I1909
sVexciting
p2217
I2285
sVthrow
p2218
I2286
sVreleased
p2219
I2287
sVon
p2220
I2288
sVok
p2221
I440
sVoh
p2222
I2292
sVjeep
p2223
I2293
sVof
p2224
I2294
sVindustry
p2225
I2295
sVcapable
p2226
I2034
sVfavorite
p2227
I2297
sVdrag
p2228
I3637
sVmeal
p2229
I618
sVchop
p2230
I2300
sVmutually
p2231
I2301
sVher
p2232
I2335
sVstand
p2233
I2303
sVlatrines
p2234
I2304
sVact
p2235
I2305
sVow
p2236
I2306
sVluck
p2237
I2308
sVbackup
p2238
I2309
sVprocessor
p2239
I2310
sVroad
p2240
I2311
sVop
p2241
I2312
sVfreeing
p2242
I2313
sVquietly
p2243
I394
sVdagger
p2244
I2315
sVburning
p2245
I2316
sVchoppers
p2246
I2317
sVcommunication
p2247
I2318
sVimage
p2248
I2319
sVgare
p2249
I2320
sVpersecution
p2250
I2322
sValchemy
p2251
I2323
sVbedtime
p2252
I2324
sVdetermine
p2253
I2325
sVapologize
p2254
I2326
sVarvin
p2255
I2327
sVnowadays
p2256
I2329
sVyour
p2257
I2330
sVtheoretically
p2258
I2331
sVintervention
p2259
I2332
sVjerks
p2260
I2333
sVgunfight
p2261
I136
sVprepare
p2262
I426
sVarea
p2263
I2336
sVwhales
p2264
I1583
sVassumed
p2265
I2338
sVthere
p2266
I2339
sVbrute
p2267
I2131
sVmeals
p2268
I2341
sVlos
p2269
I916
sVstealth
p2270
I2343
sVelbowing
p2271
I2344
sVmissy
p2272
I2345
sVkiii
p2273
I2056
sVlot
p2274
I2347
sVdumping
p2275
I2348
sVstrict
p2276
I2342
sVassumes
p2277
I2350
sVagreements
p2278
I4425
sVhookers
p2279
I2352
sVjones
p2280
I2353
sVfrom
p2281
I3820
sVcrimes
p2282
I2355
sVcomplete
p2283
I2356
sVenough
p2284
I2357
sVsmuggling
p2285
I2359
sVlgnore
p2286
I2360
sVamongst
p2287
I2361
sVcabinet
p2288
I1673
sVe
p2289
I3647
sVtrying
p2290
I2366
sVwith
p2291
I2367
sVcopied
p2292
I4429
sVbuying
p2293
I2369
sVhappening
p2294
I2328
sVabused
p2295
I2371
sVpull
p2296
I2372
sVhire
p2297
I2373
sVplenty
p2298
I3525
sVromantic
p2299
I2374
sVmonopoly
p2300
I2252
sVnearest
p2301
I3763
sVinsert
p2302
I4611
sVdoc
p2303
I3589
sVsaresh
p2304
I4533
sVdirty
p2305
I2378
sVsuitcase
p2306
I2379
sVmanuel
p2307
I2380
sVflake
p2308
I4692
sVagree
p2309
I2382
sVstrongly
p2310
I2383
sVtoilet
p2311
I627
sVac
p2312
I2385
sVrequired
p2313
I3650
sV600
p2314
I2387
sVsubdue
p2315
I2388
sVmomentarily
p2316
I1156
sVcertain
p2317
I2390
sVstealing
p2318
I1211
sVam
p2319
I2392
sVsales
p2320
I2393
sVdeep
p2321
I2394
sVgeneral
p2322
I1293
sVrantings
p2323
I1036
sVdiverged
p2324
I2398
sVdaily
p2325
I1894
sVfile
p2326
I2400
sVwalks
p2327
I2401
sVgirlfriend
p2328
I2402
sVpolitics
p2329
I2403
sVmoves
p2330
I4494
sVspends
p2331
I2405
sVfilm
p2332
I2406
sVfill
p2333
I2407
sVagain
p2334
I2408
sVreceive
p2335
I3787
sVidiot
p2336
I2410
sVdeserve
p2337
I2411
sVdrivers
p2338
I2412
sVevent
p2339
I2858
sVtight
p2340
I2415
sVterminating
p2341
I2417
sV5
p2342
I2418
sVgunships
p2343
I4363
sVgrenade
p2344
I2420
sVyou
p2345
I2421
sVoffered
p2346
I2423
sVpoor
p2347
I2424
sVrequested
p2348
I2425
sVchampionship
p2349
I2426
sVseparate
p2350
I4656
sVshelter
p2351
I2429
sVtime
p2352
I2430
sVreached
p2353
I4113
sVoverreach
p2354
I2433
sVimportant
p2355
I2434
sVpeak
p2356
I2435
sVrecognise
p2357
I2436
sVchris
p2358
I2437
sVbrass
p2359
I2439
sVresell
p2360
I2441
sVfreely
p2361
I4383
sVtricky
p2362
I2442
sVtemptress
p2363
I2444
sVcondensation
p2364
I2445
sVremote
p2365
I2446
sVassets
p2366
I2447
sVteles
p2367
I2448
sVwife
p2368
I2449
sVcontrolled
p2369
I4435
sVinvest
p2370
I2450
sVtricks
p2371
I2451
sVlsabel
p2372
I2864
sVdata
p2373
I4121
sVhello
p2374
I3663
sVrepay
p2375
I46
sVu
p2376
I2455
sVcollegues
p2377
I2456
sValright
p2378
I2457
sVcores
p2379
I2458
sVonce
p2380
I3665
sVstarting
p2381
I2460
sVcpu
p2382
I2461
sVconcubine
p2383
I2462
sVvila
p2384
I8
sVsurrounded
p2385
I2464
sVconsider
p2386
I18
sVchinese
p2387
I2467
sVmaximum
p2388
I2468
sVinstincts
p2389
I2469
sVwreath
p2390
I36
sVswerving
p2391
I2471
sVmonth
p2392
I2472
sVrobert
p2393
I2866
sVsergey
p2394
I58
sVdouglas
p2395
I2869
sVwelfare
p2396
I2476
sVdish
p2397
I2477
sVfollow
p2398
I2478
sVfaster
p2399
I2370
sVdecisions
p2400
I2480
sVsung
p2401
I97
sVcauses
p2402
I2482
sVemily
p2403
I2483
sVtv
p2404
I2484
sVsubjected
p2405
I148
sVdiplomacy
p2406
I2486
sVts
p2407
I2487
sVsparkling
p2408
I2488
sVspirit
p2409
I2489
sVto
p2410
I2490
sVtail
p2411
I2491
sVprogram
p2412
I1966
sVpresent
p2413
I4452
sVth
p2414
I2495
sVsmile
p2415
I2496
sVgovernment
p2416
I4598
sVenjoying
p2417
I2497
sVwiii
p2418
I2498
sVnorm
p2419
I2499
sVhill
p2420
I2873
sVactivities
p2421
I481
sVwoman
p2422
I2502
sVappointment
p2423
I2503
sVreturned
p2424
I2504
sVconfidential
p2425
I2505
sVsitting
p2426
I254
sVvery
p2427
I2507
sVfat
p2428
I2508
sVresistance
p2429
I3673
sVtoss
p2430
I2510
sVpersonnel
p2431
I2511
sVworst
p2432
I2512
sVminded
p2433
I2513
sVdecide
p2434
I2514
sVfall
p2435
I321
sVawful
p2436
I2516
sVticket
p2437
I2517
sVdifference
p2438
I2518
sVbradpool
p2439
I2519
sVtreating
p2440
I2520
sVleads
p2441
I2521
sVheaven
p2442
I2522
sVdiily
p2443
I2523
sVmothers
p2444
I2524
sVlouis
p2445
I2525
sVjoined
p2446
I2526
sVcitizen
p2447
I4589
sVgrandfather
p2448
I2527
sVdonovan
p2449
I2529
sVmillimeters
p2450
I2530
sVharry
p2451
I2531
sVsmall
p2452
I2532
sVbench
p2453
I3243
sVrunway
p2454
I4459
sVprogramme
p2455
I2535
sVtechnician
p2456
I4754
sVfence
p2457
I480
sVtea
p2458
I2538
sV197
p2459
I2539
sVstreets
p2460
I2540
sVtee
p2461
I2542
sVpumper
p2462
I4762
sVpast
p2463
I2543
sVstrung
p2464
I2544
sVrate
p2465
I2545
sVinvention
p2466
I2546
sVdesign
p2467
I2547
sVhonourable
p2468
I2548
sVjoyce
p2469
I4713
sVpass
p2470
I2549
sVfurther
p2471
I2550
sVinvestment
p2472
I2552
sVconscience
p2473
I572
sVdissertation
p2474
I2554
sVwhat
p2475
I2555
sVsub
p2476
I2556
sVrichard
p2477
I2557
sVclock
p2478
I628
sVsun
p2479
I606
sVsection
p2480
I2560
sVbrief
p2481
I2561
sVscientists
p2482
I2159
sVnurse
p2483
I673
sVracing
p2484
I2566
sVpublic
p2485
I680
sVthemselves
p2486
I3832
sVmovement
p2487
I2568
sVhasn
p2488
I2569
sVfull
p2489
I2570
sVcodes
p2490
I4779
sVma
p2491
I2571
sVloose
p2492
I2572
sVhumvees
p2493
I976
sVanswers
p2494
I2574
sVforgive
p2495
I2575
sVhours
p2496
I2576
sVranger
p2497
I2577
sVbeacon
p2498
I764
sVdisastrous
p2499
I2579
sVmyshkin
p2500
I2580
sVwill
p2501
I4463
sVcivilians
p2502
I781
sVdirections
p2503
I2582
sVeventful
p2504
I786
sVstrong
p2505
I2584
sVobserving
p2506
I2585
sVtragedy
p2507
I2586
sVmmm
p2508
I2885
sVsearch
p2509
I2588
sVahead
p2510
I2589
sVlosses
p2511
I2590
sVreason
p2512
I2886
sVexperience
p2513
I2593
sVfired
p2514
I4719
sVprior
p2515
I877
sVairport
p2516
I883
sVheroin
p2517
I2887
sVfarrah
p2518
I2598
sVpublished
p2519
I901
sVaction
p2520
I2601
sVsealing
p2521
I2602
sVnarrow
p2522
I2603
sViocai
p2523
I4408
sVoptions
p2524
I921
sVmedics
p2525
I2605
sVsticking
p2526
I860
sVfollowed
p2527
I2608
sVdire
p2528
I2888
sVfamily
p2529
I2610
sVbuses
p2530
I2611
sVsuddenly
p2531
I2612
sVairway
p2532
I2889
sVyoung
p2533
I3689
sVsjurisdiction
p2534
I2541
sVthought
p2535
I4545
sVtrained
p2536
I2615
sVsanction
p2537
I1022
sVarmed
p2538
I2618
sVcareer
p2539
I4382
sVpuii
p2540
I3756
sVve
p2541
I4475
sVsilva
p2542
I2621
sVeye
p2543
I2622
sVproceed
p2544
I1073
sVdistinct
p2545
I2625
sVobjectives
p2546
I2626
sViighter
p2547
I1091
sVwield
p2548
I2628
sVfinally
p2549
I1276
sVdamaged
p2550
I2630
sVtitbit
p2551
I1113
sVsanderson
p2552
I2278
sVarchives
p2553
I2634
sV6
p2554
I2635
sVmysterious
p2555
I1135
sVrestraints
p2556
I2637
sVinjury
p2557
I1146
sVachieving
p2558
I2640
sVkhat
p2559
I1996
sVmore
p2560
I2642
sVhorses
p2561
I1164
sVthrown
p2562
I2644
sVdiamond
p2563
I2645
sVdoor
p2564
I2646
sVnewlyweds
p2565
I2440
sVvirtuaily
p2566
I2648
sVthus
p2567
I4478
sVcompany
p2568
I2650
sVchopstick
p2569
I2651
sVallies
p2570
I4081
sVexcuse
p2571
I2652
sVflag
p2572
I2653
sVstick
p2573
I2655
sVbroke
p2574
I2656
sVparticular
p2575
I2657
sVknown
p2576
I2658
sVfoundations
p2577
I2659
sVobjections
p2578
I2660
sVhurry
p2579
I2661
sVglad
p2580
I2662
sVtown
p2581
I2663
sVhelped
p2582
I4481
sVgalentine
p2583
I1289
sVkla
p2584
I3440
sVhour
p2585
I2667
sVcompletion
p2586
I3762
sVscience
p2587
I2668
sVohara
p2588
I2669
sVintercepted
p2589
I2671
sVnina
p2590
I2672
sVremain
p2591
I2152
sVunwritten
p2592
I2675
sVnine
p2593
I2676
sVsent
p2594
I3699
sVmorgan
p2595
I2678
sVlearn
p2596
I2679
sVknocked
p2597
I2680
sVdea
p2598
I2681
sVmale
p2599
I2683
sVspecialized
p2600
I2684
sVmo
p2601
I213
sVmatchmaking
p2602
I1399
sVbarbwire
p2603
I1403
sVinventor
p2604
I1771
sVeveryone
p2605
I2840
sVbrown
p2606
I759
sVshare
p2607
I2690
sVcoverpattern
p2608
I2691
sVaccept
p2609
I2692
sVterrible
p2610
I2906
sVstates
p2611
I2694
sVpushed
p2612
I1735
sVminimum
p2613
I2696
sVnumbers
p2614
I1471
sVpurchased
p2615
I2698
sVsense
p2616
I2699
sVjrotc
p2617
I383
sVpong
p2618
I2701
sVscar
p2619
I2702
sVdress
p2620
I2703
sVllsbon
p2621
I4488
sVbiography
p2622
I2705
sVreputation
p2623
I3623
sVinformation
p2624
I1514
sVneeds
p2625
I2707
sV5353
p2626
I2708
sVgoal
p2627
I2709
sVscoundrels
p2628
I2710
sVlousy
p2629
I2711
sVrather
p2630
I2712
sVplans
p2631
I2726
sVbreaking
p2632
I1489
sVliaison
p2633
I2907
sVstayed
p2634
I2715
sVglowing
p2635
I1581
sVyurek
p2636
I2718
sVprofiting
p2637
I2719
sVexplains
p2638
I2720
sVdetonation
p2639
I2721
sVhoaxes
p2640
I2722
sVrecording
p2641
I3172
sVbakara
p2642
I2807
sVsandwich
p2643
I2724
sVokay
p2644
I2725
sVtried
p2645
I1649
sVbags
p2646
I2727
sVcountryside
p2647
I2728
sVadvice
p2648
I2729
sVmissions
p2649
I2730
sVsneak
p2650
I2731
sVtries
p2651
I2732
sVlnstrument
p2652
I266
sVfe
p2653
I2734
sVwaves
p2654
I1717
sVverified
p2655
I2736
sVethics
p2656
I2737
sVnicholi
p2657
I3298
sVresponse
p2658
I2739
sVcrushed
p2659
I4600
sVacquisitions
p2660
I1751
sVrefuse
p2661
I2741
sVimagery
p2662
I1764
sVmorphine
p2663
I2743
sVdeserter
p2664
I2744
sVsusan
p2665
I2745
sVonto
p2666
I2746
sVspectre
p2667
I546
sVresponsibility
p2668
I619
sVtelephones
p2669
I1833
sVmicroseconds
p2670
I2377
sVretaliate
p2671
I2631
sVpleasure
p2672
I2754
sVdream
p2673
I2755
sVretrieval
p2674
I2756
sVuhf
p2675
I4745
sVhelp
p2676
I2757
sVflowers
p2677
I2758
sVstays
p2678
I2759
sVsoon
p2679
I1913
sVcross
p2680
I4500
sVdisabled
p2681
I2762
sVheld
p2682
I2763
sVthermal
p2683
I2416
sVpaper
p2684
I2765
sVthrough
p2685
I2766
sVcomfortable
p2686
I4182
sVyourselves
p2687
I3712
sVexistence
p2688
I1943
sVsmiling
p2689
I2769
sVsurveillance
p2690
I2117
sVits
p2691
I2771
sVshareholding
p2692
I2772
sVgolfing
p2693
I2773
sV24
p2694
I1965
sV25
p2695
I1971
sV26
p2696
I1977
sV27
p2697
I2777
sV20
p2698
I2778
sVtaxpayer
p2699
I705
sVoverhead
p2700
I499
sVforthwith
p2701
I2000
sVcuvee
p2702
I2782
sVborder
p2703
I4189
sVsale
p2704
I1861
sVepileptic
p2705
I2784
sV29
p2706
I2785
sVactually
p2707
I2786
sVlate
p2708
I2787
sVmisunderstandings
p2709
I2049
sVmesses
p2710
I2790
sVrabble
p2711
I2791
sVbout
p2712
I2792
sVmight
p2713
I2793
sValter
p2714
I2794
sVally
p2715
I2795
sVfool
p2716
I2093
sVthoroughbred
p2717
I2095
sVevening
p2718
I845
sVsomebody
p2719
I2103
sVyo
p2720
I2802
sVgrip
p2721
I2199
sVya
p2722
I2119
sVpropose
p2723
I2804
sVlargest
p2724
I4508
sVye
p2725
I2805
sVwalls
p2726
I2806
sVshitless
p2727
I468
sVgoop
p2728
I2808
sVsweeping
p2729
I2170
sVdetach
p2730
I2810
sVmountaineer
p2731
I2811
sVadventurous
p2732
I2812
sVbigger
p2733
I2813
sVinstructions
p2734
I2814
sVdesperately
p2735
I2204
sVgets
p2736
I4512
sVstated
p2737
I2689
sVimprisoned
p2738
I2817
sVhook
p2739
I2818
sViine
p2740
I134
sVpuzzle
p2741
I2820
sVporte
p2742
I2245
sVspinning
p2743
I2823
sVtear
p2744
I2824
sVsomeone
p2745
I2101
sVendoskeleton
p2746
I2826
sVstopped
p2747
I2827
sVfiber
p2748
I2828
sVturns
p2749
I2829
sVfound
p2750
I2830
sVfairy
p2751
I2831
sV2o
p2752
I2290
sVfriendship
p2753
I2833
sVmarry
p2754
I3717
sVinvestigators
p2755
I2836
sVheavy
p2756
I2837
sVstatus
p2757
I2838
sVharm
p2758
I2839
sVdig
p2759
I1681
sVengland
p2760
I2841
sVupstairs
p2761
I642
sVmuseum
p2762
I4726
sVgeneration
p2763
I2844
sVhouse
p2764
I2845
sVenergy
p2765
I2846
sVhard
p2766
I2847
sVidea
p2767
I2362
sVused
p2768
I3341
sVbrother
p2769
I2849
sVawale
p2770
I2850
sVoil
p2771
I2851
sVexpect
p2772
I2852
sVinflict
p2773
I2853
sVtodd
p2774
I2854
sVorganised
p2775
I2855
sVoperation
p2776
I2856
sVbeyond
p2777
I2857
sVinsurance
p2778
I2414
sVbritain
p2779
I4461
sVreally
p2780
I2859
sVeola
p2781
I2428
sVflower
p2782
I2861
sVfunding
p2783
I2862
sVmissed
p2784
I2863
sVp
p2785
I2843
sVillicit
p2786
I4090
sVclandestine
p2787
I2865
sVchildish
p2788
I1634
sVhorrifying
p2789
I1989
sVhydraulic
p2790
I2475
sVresearch
p2791
I2479
sVacting
p2792
I2871
sVsafety
p2793
I2872
sVieave
p2794
I2500
sV7
p2795
I2874
sVmaddox
p2796
I2875
sVdarling
p2797
I2876
sVissue
p2798
I2878
sVjoaquim
p2799
I4730
sVass
p2800
I2879
sVcorporal
p2801
I2935
sVbeers
p2802
I4736
sVomar
p2803
I1658
sVrumor
p2804
I2881
sVpasses
p2805
I2936
sVroutine
p2806
I4299
sVfriday
p2807
I2883
sVhorse
p2808
I2404
sVliu
p2809
I4301
sVcockpit
p2810
I2587
sVcapture
p2811
I4493
sVqualify
p2812
I2592
sVbase
p2813
I2597
sVmembers
p2814
I2609
sVimagine
p2815
I2613
sVbacked
p2816
I885
sVmatthews
p2817
I2891
sVteach
p2818
I2892
sVrises
p2819
I2893
sVbeginning
p2820
I2894
sVspeculation
p2821
I2895
sVguest
p2822
I2939
sVbushes
p2823
I288
sVinteiligence
p2824
I2898
sVbenefits
p2825
I2899
sVthread
p2826
I2901
sVlaunch
p2827
I2902
sVrecord
p2828
I4774
sVoptics
p2829
I3282
sVcailed
p2830
I2685
sVcomputers
p2831
I2688
sVbut
p2832
I4744
sVchechens
p2833
I2693
sVamerican
p2834
I2714
sVkung
p2835
I2908
sVcircuit
p2836
I2528
sVtwenty
p2837
I2940
sVunmanned
p2838
I2911
sVsantamaria
p2839
I2912
sVcastle
p2840
I2913
sVpilots
p2841
I2914
sVfallen
p2842
I2915
sVfrancs
p2843
I3572
sVfu
p2844
I2916
sVpromoted
p2845
I4468
sVmajor
p2846
I2917
sVhawks
p2847
I2918
sVstatue
p2848
I2142
sVprobability
p2849
I2920
sVfeel
p2850
I2922
sVmimetic
p2851
I2923
sVnumber
p2852
I2924
sVwelcome
p2853
I2277
sVfeet
p2854
I2926
sVdust
p2855
I2927
sVdemille
p2856
I2928
sVdominating
p2857
I925
sVnotify
p2858
I2930
sVcybernetic
p2859
I4582
sVscoping
p2860
I2931
sVallright
p2861
I2932
sVmiss
p2862
I2933
sVgrocery
p2863
I3122
sVstage
p2864
I4680
sVrents
p2865
I2934
sVberet
p2866
I2848
sVladies
p2867
I2314
sVguess
p2868
I1035
sVheads
p2869
I2938
sVtemperature
p2870
I2896
sVavoiding
p2871
I3726
sVleading
p2872
I2910
sVshooting
p2873
I4797
sVleast
p2874
I2941
sVplayer
p2875
I211
sVassumption
p2876
I1645
sVvowed
p2877
I4172
sVstorm
p2878
I437
sVmama
p2879
I2947
sVnuts
p2880
I1560
sVfinances
p2881
I2949
sVstore
p2882
I2950
sVoverexposed
p2883
I2951
sVselling
p2884
I2952
sVwarmly
p2885
I2953
sVpassed
p2886
I2946
sVrelationship
p2887
I2955
sVbehind
p2888
I1959
sVjamie
p2889
I1310
sVpark
p2890
I2958
sVplane
p2891
I2733
sVoooowww
p2892
I2961
sVpart
p2893
I2962
sVboots
p2894
I3737
sVdoctors
p2895
I1541
sVrain
p2896
I433
sVbelieve
p2897
I2966
sVconvinced
p2898
I2967
sVgrace
p2899
I2968
sVrelieves
p2900
I2969
sVlevel
p2901
I2821
sVlegs
p2902
I2302
sVcritically
p2903
I2973
sVtishman
p2904
I2974
sVcondolences
p2905
I2975
sVdouble
p2906
I2976
sVanticipate
p2907
I2977
sVgrey
p2908
I2979
sVdispensed
p2909
I2980
sVyouth
p2910
I2981
sVunderpinning
p2911
I1222
sVdismantling
p2912
I1262
sVmarriage
p2913
I2984
sVsupposed
p2914
I2985
sVinsulted
p2915
I2986
sVyesterday
p2916
I3346
sViooking
p2917
I2987
sVunforgiving
p2918
I2988
sVgarrison
p2919
I1561
sVplaying
p2920
I2761
sV2029
p2921
I2991
sVrisky
p2922
I2992
sVbuilshit
p2923
I2993
sVsunblock
p2924
I2994
sVranch
p2925
I2995
sVoutta
p2926
I2996
sVoutstanding
p2927
I2997
sVstrengthen
p2928
I2998
sVfights
p2929
I2999
sVaffirmative
p2930
I3000
sVguarding
p2931
I3001
sVairstrike
p2932
I3002
sVcomrades
p2933
I3003
sVnothin
p2934
I3004
sVcleaned
p2935
I3005
sVimperfect
p2936
I3007
sVnull
p2937
I3008
sVorders
p2938
I3009
sVsell
p2939
I3010
sVmountain
p2940
I1161
sVbreathing
p2941
I3012
sVnights
p2942
I3013
sVgeneva
p2943
I2954
sVdrunk
p2944
I4579
sVtrip
p2945
I3016
sVpa
p2946
I3017
sVself
p2947
I3018
sVtrapped
p2948
I2956
sVscotland
p2949
I3020
sVofficers
p2950
I3021
sVclient
p2951
I3022
sVwring
p2952
I4298
sVmajority
p2953
I3023
sVbrack
p2954
I3024
sVbecca
p2955
I3025
sVuseless
p2956
I406
sVfinding
p2957
I3028
sVrent
p2958
I3497
sVjacinto
p2959
I3030
sVinterfered
p2960
I3031
sVkneecap
p2961
I3032
sVplay
p2962
I3033
sVhotel
p2963
I2957
sV64
p2964
I3036
sVleaking
p2965
I3038
sVapproves
p2966
I3039
sVmeasures
p2967
I3040
sVreach
p2968
I3041
sVsteam
p2969
I3043
sVreact
p2970
I3044
sVmost
p2971
I3045
sV75
p2972
I3046
sVhired
p2973
I3047
sVexperiences
p2974
I3048
sVimmediate
p2975
I2959
sVeaten
p2976
I1352
sVflatliner
p2977
I4740
sVnothing
p2978
I3051
sValpha
p2979
I3052
sVdoutora
p2980
I3053
sVmeasured
p2981
I3054
sVrevolutionary
p2982
I2897
sVappear
p2983
I3057
sVsalary
p2984
I3058
sVdeviations
p2985
I2723
sVseize
p2986
I3060
sVmobile
p2987
I3061
sVclear
p2988
I3062
sVsometimes
p2989
I3063
sVcover
p2990
I3064
sVluckily
p2991
I3065
sVfianc
p2992
I3751
sVnecessary
p2993
I4612
sVclean
p2994
I3066
sVusual
p2995
I4554
sVorganism
p2996
I3069
sVdragged
p2997
I568
sVlying
p2998
I3071
sVjoining
p2999
I3072
sVthomas
p3000
I2289
sVrebels
p3001
I3074
sVgold
p3002
I3075
sVexterminate
p3003
I3076
sV667
p3004
I3077
sVblended
p3005
I3078
sVweapons
p3006
I1957
sVdisappointed
p3007
I3081
sVsup
p3008
I2563
sVclog
p3009
I3083
sVrelation
p3010
I3084
sVrtp
p3011
I3085
sVcarefully
p3012
I3086
sVfine
p3013
I3087
sVfind
p3014
I3088
sVbarking
p3015
I4558
sVimpact
p3016
I3090
sVaccess
p3017
I3582
sVgiant
p3018
I3092
sVdelinquent
p3019
I3094
sVparameters
p3020
I3095
sVnervous
p3021
I3097
sVwrites
p3022
I3098
sVless
p3023
I3099
sVdistributed
p3024
I3100
sViet
p3025
I3101
sVvision
p3026
I3102
sVcalibrated
p3027
I3103
sVfailed
p3028
I3105
sVidiots
p3029
I3106
sVfoilowed
p3030
I3107
sVcassette
p3031
I3108
sVbetray
p3032
I3109
sVpretty
p3033
I3110
sVmoney
p3034
I2166
sVjoseph
p3035
I3112
sVcuba
p3036
I3113
sVcolumns
p3037
I3114
sVloved
p3038
I4158
sVhis
p3039
I3117
sVhit
p3040
I3118
sVtemplate
p3041
I3119
sVmeanwhile
p3042
I3120
sVbend
p3043
I3880
sVsunny
p3044
I3121
sVkind
p3045
I2971
sVfamous
p3046
I3123
sVfeels
p3047
I3124
sVgrew
p3048
I2972
sVrest
p3049
I2169
sViook
p3050
I3127
sVshared
p3051
I3128
sVcombinations
p3052
I3129
sVduring
p3053
I3130
sVhim
p3054
I3132
sVenemy
p3055
I3133
sVunaddressed
p3056
I3134
sVsleeve
p3057
I3135
sVsacrificed
p3058
I3136
sVcry
p3059
I3137
sVtestifying
p3060
I3138
sVremove
p3061
I3139
sVbanking
p3062
I3140
sVcommon
p3063
I3141
sVgotten
p3064
I3142
sVhype
p3065
I3143
sVcease
p3066
I3144
sVweaves
p3067
I3035
sVrear
p3068
I3146
sVwrote
p3069
I3147
sVapproaching
p3070
I3148
sVinsane
p3071
I3149
sVhummer
p3072
I3150
sVbars
p3073
I3151
sVset
p3074
I3152
sVart
p3075
I1107
sVcould
p3076
I4085
sVdump
p3077
I3154
sVachieved
p3078
I3155
sVthrowing
p3079
I870
sVfarrier
p3080
I3157
sVauthorization
p3081
I2641
sVdeactivation
p3082
I3159
sVsee
p3083
I3162
sVdefense
p3084
I3163
sVdumb
p3085
I3164
sVare
p3086
I3165
sVlisbon
p3087
I3166
sVfellow
p3088
I4451
sVtransportation
p3089
I2427
sVacts
p3090
I2713
sVsei
p3091
I3170
sVfeared
p3092
I3171
sVsuccess
p3093
I4614
sVknees
p3094
I239
sVbanks
p3095
I2753
sVexpert
p3096
I3174
sVbride
p3097
I2982
sVdeactivate
p3098
I3176
sVpictures
p3099
I3177
sVwow
p3100
I3178
sVleg
p3101
I3766
sVplease
p3102
I3180
sVslapped
p3103
I3181
sVcase
p3104
I2501
sVdetermined
p3105
I2983
sVhappiness
p3106
I4572
sVcheckmate
p3107
I3185
sVhonour
p3108
I3186
sVhundred
p3109
I2948
sVprobably
p3110
I3187
sVburned
p3111
I3188
sVnope
p3112
I413
sVslaying
p3113
I3190
sVcompliment
p3114
I3191
sVrisks
p3115
I3192
sVavailable
p3116
I84
sVlmmediately
p3117
I3194
sVfoam
p3118
I3195
sVoutloud
p3119
I3196
sVrecently
p3120
I3197
sVcreating
p3121
I3198
sVmissing
p3122
I3199
sVpremises
p3123
I3200
sVpisses
p3124
I3201
sVsold
p3125
I3202
sVsole
p3126
I2822
sVditomasso
p3127
I1808
sVincident
p3128
I3205
sVrenewed
p3129
I3206
sVgrimesy
p3130
I3207
sVadmirers
p3131
I2616
sVinvisible
p3132
I443
sVmeantime
p3133
I3985
sVboth
p3134
I3211
sVc
p3135
I3212
sVtoward
p3136
I2989
sVimproved
p3137
I3214
sVrestaurant
p3138
I3215
sVoversee
p3139
I3216
sVtreated
p3140
I2990
sVeuros
p3141
I2183
sVpatients
p3142
I4169
sVconnection
p3143
I3218
sVgrimes
p3144
I3219
sVpremlum
p3145
I3220
sVbuzz
p3146
I3221
sVlet
p3147
I3773
sVprotector
p3148
I3223
sVwhole
p3149
I3224
sVfinds
p3150
I3225
sViooks
p3151
I409
sVairborne
p3152
I3227
sVboaventura
p3153
I3229
sVnextel
p3154
I3230
sVheaded
p3155
I1858
sVsimple
p3156
I1540
sVsweet
p3157
I1670
sVloan
p3158
I3234
sVsteele
p3159
I3235
sVmanners
p3160
I3236
sVcommunity
p3161
I1509
sVrosa
p3162
I2187
sValone
p3163
I3239
sVsimply
p3164
I3240
sVlikes
p3165
I3241
sVchurch
p3166
I3242
sVvacuumed
p3167
I545
sVimprovement
p3168
I2189
sVmission
p3169
I2760
sVexpensive
p3170
I3244
sVheadaches
p3171
I3245
sVnegotiations
p3172
I2121
sVworthless
p3173
I3247
sVchopper
p3174
I2716
sVraise
p3175
I3249
sVdevii
p3176
I3250
sVinstrument
p3177
I3251
sVimplosion
p3178
I3253
sVpolitical
p3179
I3254
sVdue
p3180
I3255
sVteacher
p3181
I3256
sVbolivar
p3182
I1160
sVwhom
p3183
I3258
sVsecret
p3184
I3259
sVwilkie
p3185
I2208
sVdamn
p3186
I3261
sVcoarse
p3187
I4381
sVireland
p3188
I3263
sVassassinated
p3189
I2226
sVmeeting
p3190
I3266
sVwhoa
p3191
I3267
sVempty
p3192
I3268
sVattractive
p3193
I4587
sVfirm
p3194
I3269
sVsweetheart
p3195
I3270
sVlived
p3196
I3271
sVreigns
p3197
I3272
sVchampion
p3198
I3273
sVgay
p3199
I3274
sVpedals
p3200
I2413
sVschizo
p3201
I2620
sVtorque
p3202
I3277
sVwet
p3203
I3278
sVgas
p3204
I3279
sVgreat
p3205
I3782
sVelse
p3206
I3281
sVwhatever
p3207
I3237
sVraces
p3208
I3284
sVlives
p3209
I3285
sVrepresentative
p3210
I3286
sVsuicide
p3211
I3287
sViarge
p3212
I3288
sVdespite
p3213
I3289
sVrecognised
p3214
I4731
sVstolen
p3215
I3290
sVthirty
p3216
I1383
sVjuice
p3217
I3293
sVsolid
p3218
I3294
sVstraight
p3219
I3295
sVbill
p3220
I3296
sVtolerate
p3221
I3297
sVrope
p3222
I3299
sVpace
p3223
I92
sVwhile
p3224
I3301
sVkick
p3225
I316
sVfun
p3226
I3303
sVcounselling
p3227
I4806
sVpainfully
p3228
I3304
sVradio
p3229
I3727
sVengineers
p3230
I2220
sVscheduled
p3231
I2021
sVdetailed
p3232
I4400
sVhoping
p3233
I3307
sVportugal
p3234
I3308
sVcentury
p3235
I3309
sVbacking
p3236
I3310
sVfunded
p3237
I3311
sVnonono
p3238
I3312
sVrip
p3239
I3313
sVducks
p3240
I3314
sVrio
p3241
I3315
sVitself
p3242
I3316
sVterminator
p3243
I3317
sVowes
p3244
I229
sVready
p3245
I3319
sVrid
p3246
I3321
sVleaving
p3247
I3793
sVvox
p3248
I3322
sVaround
p3249
I2202
sVfunny
p3250
I3324
sVsince
p3251
I2867
sVanymore
p3252
I3325
sVgrant
p3253
I298
sVpinned
p3254
I2942
sVbelong
p3255
I3327
sVproblems
p3256
I3632
sVelvis
p3257
I3328
sVrules
p3258
I3329
sVdelicious
p3259
I3330
sVkimono
p3260
I3331
sVreachable
p3261
I3332
sVgrand
p3262
I3333
sVesteemed
p3263
I3334
sVadvise
p3264
I3335
sVshan
p3265
I3336
sVconflict
p3266
I3337
sVhigher
p3267
I3338
sVdevelopment
p3268
I3339
sVarrives
p3269
I3160
sVaffairs
p3270
I2009
sVkeys
p3271
I3343
sVassignment
p3272
I3344
sVdefeat
p3273
I3795
sVnegotiate
p3274
I431
sValert
p3275
I3347
sVhusbands
p3276
I3348
sVmoment
p3277
I3349
sV000
p3278
I451
sVarrived
p3279
I456
sVpurpose
p3280
I3352
sViater
p3281
I3353
sVbrussels
p3282
I3354
sVnickname
p3283
I3355
sVweird
p3284
I3356
sVbuilt
p3285
I3014
sVbasest
p3286
I3358
sVlower
p3287
I3359
sVrearm
p3288
I3361
sVtry
p3289
I3721
sVanybody
p3290
I541
sVanalysis
p3291
I3364
sVobviously
p3292
I549
sVperson
p3293
I3366
sVedge
p3294
I337
sVstrobe
p3295
I3368
sVwithdraw
p3296
I3369
sVy
p3297
I583
sVorganization
p3298
I588
sVclearance
p3299
I3373
sVuntii
p3300
I3374
sVspend
p3301
I3375
sVknow
p3302
I4604
sVscouring
p3303
I3376
sVgrievance
p3304
I3377
sVmoving
p3305
I3351
sVjeopardize
p3306
I3019
sVexploits
p3307
I3379
sVbearer
p3308
I630
sVcensurable
p3309
I3381
sVspoons
p3310
I3382
sVdesk
p3311
I4605
sVquarters
p3312
I3385
sVabbreviation
p3313
I676
sVpress
p3314
I4606
sVshape
p3315
I3388
sVcircling
p3316
I3389
sVquestions
p3317
I3390
sVusing
p3318
I3391
sVinjuries
p3319
I724
sValignment
p3320
I3394
sVletting
p3321
I3395
sVtables
p3322
I3396
sVloading
p3323
I2432
sVhelping
p3324
I3398
sVreaders
p3325
I763
sVsurprises
p3326
I770
sVworkers
p3327
I3401
sVcanisters
p3328
I3402
sVguaranteed
p3329
I3403
sVchest
p3330
I3404
sVsignals
p3331
I3405
sVrangers
p3332
I799
sVbred
p3333
I4235
sVanaphylactic
p3334
I3407
sVparents
p3335
I3408
sVlocation
p3336
I815
sVcrying
p3337
I3410
sVsnap
p3338
I3411
sVcontrary
p3339
I3412
sVexcited
p3340
I3413
sVsurprised
p3341
I3414
sVbuild
p3342
I3026
sVbin
p3343
I3416
sVclan
p3344
I3417
sVvaughn
p3345
I3418
sVclutches
p3346
I3419
sVfire
p3347
I3276
sVdemands
p3348
I3421
sVbig
p3349
I3422
sVcouple
p3350
I892
sVsleeper
p3351
I3424
sVterminate
p3352
I4251
sVencryptions
p3353
I915
sVredeem
p3354
I919
sValias
p3355
I3428
sVcataclysm
p3356
I3429
sVhostiles
p3357
I3430
sVreliable
p3358
I4116
sVhallucinations
p3359
I3432
sVvending
p3360
I2788
sVbit
p3361
I3434
sVprojects
p3362
I3436
sVimposed
p3363
I3438
sVd
p3364
I3439
sVflight
p3365
I4796
sVsignal
p3366
I3441
sVteii
p3367
I3442
sVshapes
p3368
I3443
sVcommunications
p3369
I3444
sVcontinue
p3370
I3445
sVunstable
p3371
I3446
sVexfil
p3372
I3447
sVbreeder
p3373
I277
sVperfect
p3374
I4356
sVfoolish
p3375
I3449
sVdisorder
p3376
I3450
sVsummarise
p3377
I1081
sVtwo
p3378
I2629
sVnames
p3379
I3810
sVlug
p3380
I4350
sVmethods
p3381
I3453
sVbrakes
p3382
I3454
sVseiler
p3383
I567
sVgoddamn
p3384
I3456
sVfathers
p3385
I3457
sV1st
p3386
I3458
sVsundaes
p3387
I1129
sVback
p3388
I3460
sVurgent
p3389
I1148
sVstrongest
p3390
I3462
sVtowards
p3391
I3034
sVgrenades
p3392
I1582
sVsight
p3393
I3465
sVsprint
p3394
I3466
sVclasses
p3395
I3467
sVnicaragua
p3396
I3468
sVourselves
p3397
I3469
sVminefield
p3398
I3470
sVsenseless
p3399
I3233
sVdelivered
p3400
I3472
sVdebrief
p3401
I3474
sVsiily
p3402
I3475
sVdecision
p3403
I3476
sVtransactions
p3404
I2086
sVintegration
p3405
I3478
sVprom
p3406
I1273
sVbehave
p3407
I3481
sVcoileague
p3408
I1283
sVsmaii
p3409
I3483
sVpee
p3410
I3484
sVdating
p3411
I3485
sVlnstead
p3412
I3486
sVanna
p3413
I3487
sVshooters
p3414
I1319
sVjumpy
p3415
I3489
sVbe
p3416
I3490
sVpatient
p3417
I1336
sVfancy
p3418
I2925
sV300
p3419
I3492
sVword
p3420
I1297
sVlose
p3421
I4623
sVcontinuing
p3422
I3494
sVfed
p3423
I2717
sVrefused
p3424
I3496
sVstep
p3425
I1388
sVweil
p3426
I3498
sVnowhere
p3427
I1402
sVweii
p3428
I1405
sVbecome
p3429
I4624
sVchairman
p3430
I3415
sVawk
p3431
I4225
sVintense
p3432
I1430
sVtroops
p3433
I2591
sVshine
p3434
I3505
sVfaith
p3435
I3506
sVpipeline
p3436
I3507
sVcautious
p3437
I3508
sV1546
p3438
I3509
sVvolunteering
p3439
I1456
sVblackburn
p3440
I3511
sVsurrender
p3441
I3291
sVfiring
p3442
I3513
sVtruck
p3443
I4211
sVmilitia
p3444
I3515
sVstuart
p3445
I3516
sVwrinkled
p3446
I3517
sVmouth
p3447
I3518
sVhatred
p3448
I3519
sVbehaviour
p3449
I4393
sVwanna
p3450
I3520
sVsilence
p3451
I1547
sVplan
p3452
I3049
sVrepair
p3453
I1558
sVjimmy
p3454
I3524
sVtitbits
p3455
I3300
sVsignificant
p3456
I3050
sVglobai
p3457
I3526
sVdude
p3458
I3015
sVinto
p3459
I3528
sVnsc
p3460
I1595
sVtraitors
p3461
I4630
sVsphere
p3462
I2695
sVsmelly
p3463
I3533
sVfuii
p3464
I3534
sVfrance
p3465
I3535
sVdidn
p3466
I4631
sVsmells
p3467
I1665
sVkatie
p3468
I1669
sVimpressed
p3469
I3539
sVsarge
p3470
I3540
sVstory
p3471
I2937
sVharnessed
p3472
I3541
sVfew
p3473
I3828
sVspending
p3474
I3542
sVextremely
p3475
I3543
sVplacing
p3476
I3545
sVlone
p3477
I1716
sVfast
p3478
I1720
sVapproved
p3479
I3055
sVfully
p3480
I3548
sVoccupy
p3481
I3549
sVcamera
p3482
I3829
sVaidid
p3483
I3551
sVpapis
p3484
I3552
sVsuit
p3485
I3553
sVforward
p3486
I3554
sVbored
p3487
I1058
sVopponent
p3488
I3556
sVblueprint
p3489
I1795
sVmountains
p3490
I3558
sVhimself
p3491
I3559
sVlopes
p3492
I2005
sVinvite
p3493
I3561
sVinches
p3494
I3562
sVenergies
p3495
I2781
sVgraciously
p3496
I3563
sVadjusting
p3497
I3564
sVaudacious
p3498
I3565
sVunderstands
p3499
I3059
sVcannotintervene
p3500
I1847
sVhoped
p3501
I1554
sVboys
p3502
I3569
sVgame
p3503
I3570
sVlibrary
p3504
I3571
sVdelta
p3505
I1879
sVrussian
p3506
I3573
sVline
p3507
I3574
sVdull
p3508
I3575
sVdeployed
p3509
I3576
sVinfo
p3510
I1906
sVtravelling
p3511
I3578
sVsounds
p3512
I3581
sVrequesting
p3513
I2594
sVfries
p3514
I3583
sVup
p3515
I3584
sVus
p3516
I3585
sVoily
p3517
I3835
sVum
p3518
I3586
sVgrasp
p3519
I4366
sVuh
p3520
I3588
sVmetai
p3521
I683
sVcalled
p3522
I3590
sVhornet
p3523
I3591
sVcamp
p3524
I3592
sVfreak
p3525
I611
sVmindful
p3526
I3594
sVraging
p3527
I3595
sVmetal
p3528
I3596
sVlistening
p3529
I3380
sVentrance
p3530
I3599
sVdoesn
p3531
I3600
sVscarlet
p3532
I3602
sVsingle
p3533
I2082
sVwarning
p3534
I3604
sVcitizens
p3535
I1474
sVnecks
p3536
I3605
sVexceilent
p3537
I3606
sVfabricating
p3538
I3607
sVrally
p3539
I3608
sVcafe
p3540
I3514
sVprevail
p3541
I3610
sVsilverware
p3542
I2904
sVstraitjacket
p3543
I35
sVdisinformation
p3544
I3531
sVrandy
p3545
I3613
sVdivine
p3546
I2256
sVsuffiiciently
p3547
I4772
sVnah
p3548
I3616
sVpeace
p3549
I3617
sVthanks
p3550
I949
sVbacks
p3551
I3619
sVscrape
p3552
I3620
sVteams
p3553
I3621
sVnap
p3554
I3622
sVpoints
p3555
I1976
sVelectrical
p3556
I3624
sVintruders
p3557
I3625
sVgrind
p3558
I4492
sVassassinate
p3559
I3627
sVnice
p3560
I3628
sVdraw
p3561
I3629
sVfavourite
p3562
I3631
sVpapa
p3563
I1343
sVresign
p3564
I2284
sVprepared
p3565
I3634
sVregulations
p3566
I3093
sVintensified
p3567
I3636
sVmeaning
p3568
I2298
sVrested
p3569
I514
sVlunch
p3570
I4537
sVevac
p3571
I3252
sVsong
p3572
I3640
sVdesert
p3573
I579
sVforprisoner
p3574
I740
sVwristband
p3575
I3643
sVago
p3576
I3644
sVseatback
p3577
I3645
sVland
p3578
I3646
sVfighter
p3579
I2365
sVblend
p3580
I3648
sVage
p3581
I3649
sVvehicles
p3582
I2386
sVresolving
p3583
I2376
sVorbit
p3584
I3652
sVinstitutions
p3585
I3070
sVimpatient
p3586
I3654
sVascertained
p3587
I3655
sVsummit
p3588
I3656
sVhumvee
p3589
I3657
sVcommunes
p3590
I4654
sVfar
p3591
I3659
sVeverywhere
p3592
I3660
sVberries
p3593
I3661
sVrequires
p3594
I3662
sVhaving
p3595
I2453
sVinitiating
p3596
I3664
sVvalves
p3597
I2459
sVregroup
p3598
I3667
sVcode
p3599
I3668
sVsalt
p3600
I3669
sVhawlwadig
p3601
I3670
sVretracted
p3602
I3672
sVresults
p3603
I2509
sVtested
p3604
I3674
sVexisting
p3605
I3675
sVdresser
p3606
I4823
sVnuno
p3607
I3676
sVstops
p3608
I3677
sVaw
p3609
I3678
sVgo
p3610
I3679
sVquery
p3611
I3680
sVpsycho
p3612
I3681
sVconversation
p3613
I3682
sVissues
p3614
I3683
sVtearing
p3615
I1042
sVshouldn
p3616
I2578
sValamos
p3617
I3686
sVwizard
p3618
I3687
sVdisposai
p3619
I3688
sVego
p3620
I2750
sVsend
p3621
I3690
sVnose
p3622
I3691
sVshack
p3623
I3692
sVhats
p3624
I3693
sVhelps
p3625
I1208
sVstable
p3626
I3695
sVemployees
p3627
I3696
sVbreach
p3628
I3697
sVfriendly
p3629
I3698
sVnbelievable
p3630
I2677
sVsniper
p3631
I3700
sVpay
p3632
I2752
sVjoyride
p3633
I617
sVexpressing
p3634
I2269
sVoutside
p3635
I3703
sVdessert
p3636
I3704
sVreserved
p3637
I3883
sVcontinues
p3638
I3705
sVschedule
p3639
I4668
sVreadout
p3640
I2738
sVgrid
p3641
I3371
sVwishes
p3642
I3708
sVputting
p3643
I3709
sVspook
p3644
I3372
sVtelling
p3645
I3711
sVartery
p3646
I2767
sVinfrared
p3647
I3713
sVentire
p3648
I3714
sVmagic
p3649
I3715
sVmeant
p3650
I4281
sVpositions
p3651
I3716
sVbutton
p3652
I2834
sVshock
p3653
I3718
sVmichael
p3654
I3719
sVcolors
p3655
I3720
sVconfidence
p3656
I3818
sVleader
p3657
I4663
sVgullible
p3658
I2860
sVthreat
p3659
I2909
sVchatelet
p3660
I3723
sVrace
p3661
I3724
sVkirkland
p3662
I3725
sVdealt
p3663
I2354
sVmobilize
p3664
I990
sVinspection
p3665
I2903
sVride
p3666
I3729
sVrach
p3667
I3730
sVlorenzo
p3668
I3580
sVcap
p3669
I3732
sVsizemore
p3670
I3733
sVbleeding
p3671
I3735
sVsomeplace
p3672
I3736
sVmishap
p3673
I2963
sValvaro
p3674
I3738
sVjump
p3675
I3739
sVimply
p3676
I3740
sVnoise
p3677
I4666
sVvideo
p3678
I3742
sVpicked
p3679
I3743
sVsubtle
p3680
I3744
sVcoated
p3681
I4667
sVcat
p3682
I3745
sVpajamas
p3683
I3746
sVdepression
p3684
I3747
sVsouth
p3685
I4098
sVpower
p3686
I3748
sVchicago
p3687
I3749
sVgiving
p3688
I3750
sVcolonel
p3689
I3067
sVsaw
p3690
I1813
sVtleave
p3691
I4444
sVhenceforth
p3692
I3091
sVpasadena
p3693
I2965
sVwaiting
p3694
I3755
sVindian
p3695
I3116
sVmicroprocessor
p3696
I3757
sVt
p3697
I3488
sVfrequent
p3698
I3758
sVbird
p3699
I3759
sVexercise
p3700
I3760
sVbody
p3701
I3761
sVsharks
p3702
I2452
sVshutting
p3703
I3764
sVdesires
p3704
I3765
sVexchange
p3705
I3179
sVpushing
p3706
I3767
sVpunch
p3707
I3768
sVyoungest
p3708
I3769
sVgrowing
p3709
I2815
sV1545
p3710
I1381
sVfocused
p3711
I3222
sVhealing
p3712
I3774
sVseparation
p3713
I3775
sVothers
p3714
I3776
sVsafer
p3715
I3777
sVhiss
p3716
I3027
sVtwentleth
p3717
I3779
sVruthie
p3718
I3265
sViljust
p3719
I3781
sV39
p3720
I3280
sVengage
p3721
I3783
sVtalent
p3722
I3784
sVsecuring
p3723
I3785
sVbroken
p3724
I3786
sV33
p3725
I1972
sVinvolved
p3726
I3788
sV31
p3727
I3789
sV30
p3728
I3790
sVreacquire
p3729
I3791
sVstairs
p3730
I3792
sVextreme
p3731
I3780
sVlater
p3732
I1859
sVbalkans
p3733
I4676
sVmenu
p3734
I2255
sVopinion
p3735
I3796
sVclimb
p3736
I3797
sVloses
p3737
I4621
sVstephanie
p3738
I3362
sVkittana
p3739
I678
sVfake
p3740
I3801
sVcontrol
p3741
I3881
sVnamed
p3742
I3384
sVairspace
p3743
I3803
sVheart
p3744
I3567
sViong
p3745
I3805
sVwin
p3746
I3806
sVmanage
p3747
I3807
sVsgt
p3748
I841
sVprivate
p3749
I3809
sVlimo
p3750
I3452
sVmotor
p3751
I3811
sVcolumnists
p3752
I3812
sVhome
p3753
I4644
sVscandal
p3754
I3813
sVsugar
p3755
I3814
sVtools
p3756
I3815
sVbound
p3757
I4359
sVintegrationa
p3758
I3816
sVstanding
p3759
I3817
sVuse
p3760
I1518
sVfee
p3761
I3819
sVcrap
p3762
I3501
sVencryption
p3763
I3821
sVremains
p3764
I3822
sVillegal
p3765
I3823
sVmuzaffarabad
p3766
I3824
sVflat
p3767
I3825
sVnext
p3768
I3826
sVpressurising
p3769
I3827
sVfrogs
p3770
I2799
sVdoubt
p3771
I3550
sVvehicle
p3772
I3830
sVcram
p3773
I2241
sVbonds
p3774
I3360
sVjonathan
p3775
I2270
sVdreams
p3776
I3834
sVgeeks
p3777
I1479
sVsquad
p3778
I3837
sVsort
p3779
I3838
sVpencil
p3780
I3839
sVsupposedly
p3781
I2573
sVbabe
p3782
I3842
sVjournalists
p3783
I3611
sVstarted
p3784
I3844
sVbecomes
p3785
I3845
sVpatrol
p3786
I3846
sVcriticising
p3787
I3111
sVuranium
p3788
I3618
sVinfection
p3789
I3848
sVcharming
p3790
I3849
sVdealings
p3791
I3850
sVheil
p3792
I3851
sVtrain
p3793
I3852
sVashamed
p3794
I3853
sVheii
p3795
I3854
sVbaby
p3796
I3855
sVfillings
p3797
I2291
sVdetects
p3798
I687
sVcircle
p3799
I3859
sVminions
p3800
I3694
sVwomen
p3801
I3861
sVhigh
p3802
I3892
sVballs
p3803
I3863
sVpracticing
p3804
I1157
sVportugu
p3805
I3865
sVsalad
p3806
I3866
sVf
p3807
I3867
sVtunnel
p3808
I3722
sVsomali
p3809
I3869
sVneedle
p3810
I3037
sVpackage
p3811
I3601
sVwh
p3812
I4375
sVanywhere
p3813
I3872
sVobvious
p3814
I3873
sVruiz
p3815
I3874
sVdrill
p3816
I3875
sVisland
p3817
I3345
sVindustrial
p3818
I3877
sVmeet
p3819
I3878
sVclosing
p3820
I3879
sVinstitute
p3821
I1385
sVproof
p3822
I3798
sVpoint
p3823
I3231
sVbeijing
p3824
I3882
sVviolence
p3825
I2296
sVkenny
p3826
I2649
sVieague
p3827
I3884
sVprocess
p3828
I3885
sVbibliotheque
p3829
I3886
sVievel
p3830
I3887
sVshrimps
p3831
I3889
sVsewage
p3832
I3890
sVievei
p3833
I3858
sVescaped
p3834
I3862
sVmagicians
p3835
I3893
sVpulling
p3836
I2747
sVshipping
p3837
I2443
sVbones
p3838
I3897
sVpelvis
p3839
I3896
sVgetyour
p3840
I3210
sVvoice
p3841
I2266
sVenrique
p3842
I3899
sVnative
p3843
I3902
sVminiguns
p3844
I3903
sVhesitate
p3845
I3904
sVmartyr
p3846
I3900
sVdaring
p3847
I3906
sVmemorize
p3848
I3907
sVfriendlies
p3849
I3836
sVsix
p3850
I3909
sVdelay
p3851
I3910
sVlocated
p3852
I3911
sVnumerous
p3853
I3189
sVpair
p3854
I3913
sVanimal
p3855
I3914
sViocale
p3856
I3630
sVimmorai
p3857
I227
sVpanic
p3858
I3918
sVstock
p3859
I3919
sVprofile
p3860
I3920
sVbuildings
p3861
I3921
sVblocks
p3862
I3922
sVriver
p3863
I4080
sVattend
p3864
I3923
sVsir
p3865
I3924
sVstop
p3866
I3926
sVawait
p3867
I3927
sVthunderstorm
p3868
I3928
sVcollection
p3869
I3929
sVbothered
p3870
I3930
sVchiefs
p3871
I2564
sVindependent
p3872
I3932
sVunited
p3873
I3905
sVdominick
p3874
I3934
sVintercept
p3875
I3772
sVstructure
p3876
I3642
sVtier
p3877
I3936
sVties
p3878
I3937
sVcoast
p3879
I1075
sVupstate
p3880
I3939
sVsolidarity
p3881
I3940
sVbombers
p3882
I3941
sVdemocracy
p3883
I3942
sVdaycare
p3884
I3943
sVwhistle
p3885
I3944
sVlight
p3886
I3945
sVsit
p3887
I3908
sVgilson
p3888
I1968
sVhum
p3889
I1757
sVelement
p3890
I434
sVsanest
p3891
I3949
sVscoop
p3892
I3950
sVreai
p3893
I3951
sVcourage
p3894
I3125
sVhonestly
p3895
I3952
sVfoilow
p3896
I3953
sVclassy
p3897
I3954
sValloy
p3898
I3955
sVfavourites
p3899
I3956
sVsecured
p3900
I3957
sVpreparing
p3901
I3126
sVignite
p3902
I3959
sVholds
p3903
I3960
sVthigh
p3904
I1454
sVpiece
p3905
I4782
sVwolfie
p3906
I3962
sVping
p3907
I3963
sVareas
p3908
I4300
sVwedding
p3909
I668
sVdisarm
p3910
I3965
sVdisinfectant
p3911
I1201
sVspank
p3912
I3968
sV130
p3913
I1564
sVincluding
p3914
I589
sVmotorcycle
p3915
I3971
sVmutt
p3916
I3972
sVpermission
p3917
I3967
sVknows
p3918
I2647
sVtrusts
p3919
I2870
sVoperative
p3920
I3974
sVbunch
p3921
I3975
sVsantiago
p3922
I2092
sVunderwater
p3923
I2419
sVqrf
p3924
I2943
sVla
p3925
I3979
sVpaths
p3926
I3011
sVlo
p3927
I3981
sVll
p3928
I3982
sVwitness
p3929
I4759
sVships
p3930
I3983
sVwinning
p3931
I3984
sVmental
p3932
I2842
sVowe
p3933
I4705
sVlt
p3934
I3987
sVwilling
p3935
I3988
sVdegrees
p3936
I3989
sVyoungster
p3937
I1251
sVredhead
p3938
I3992
sVcovered
p3939
I3993
sVcriminal
p3940
I3994
sVcrowds
p3941
I3995
sVcriminai
p3942
I3996
sVdad
p3943
I3997
sVrelay
p3944
I997
sVsword
p3945
I1505
sVerrands
p3946
I4706
sVgalleria
p3947
I3915
sVearn
p3948
I677
sVflew
p3949
I4004
sVunarmed
p3950
I4006
sVsnails
p3951
I4007
sVrebel
p3952
I4008
sVkiss
p3953
I4009
sVinstead
p3954
I3916
sVfront
p3955
I4011
sVinsisting
p3956
I4012
sVwig
p3957
I4013
sVrealize
p3958
I1205
sVstitches
p3959
I3537
sVsuccessor
p3960
I4015
sVarticles
p3961
I1746
sVcontagious
p3962
I4017
sVfreaked
p3963
I4018
sVintelligent
p3964
I4019
sVuniversity
p3965
I4020
sVtraced
p3966
I4021
sVfeast
p3967
I4022
sVidentified
p3968
I4023
sVdoesnt
p3969
I4709
sVtransmitted
p3970
I4025
sVtruth
p3971
I4026
sVinterview
p3972
I4339
sVonlookers
p3973
I4027
sVuninteresting
p3974
I4028
sVtracer
p3975
I4029
sVfrancisco
p3976
I4825
sVcousin
p3977
I4411
sVlie
p3978
I3342
sVactivate
p3979
I4030
sVdoing
p3980
I4031
sVdensity
p3981
I4577
sVadventure
p3982
I4032
sVjugular
p3983
I4033
sVprogrammed
p3984
I4034
sVproduct
p3985
I3386
sVjunkie
p3986
I4036
sVbooks
p3987
I4037
sVharrell
p3988
I4038
sVseparating
p3989
I130
sVour
p3990
I4040
sVbay
p3991
I4041
sVbiily
p3992
I2180
sVspecial
p3993
I4043
sVout
p3994
I4044
sVempires
p3995
I4045
sVmatt
p3996
I4046
sVbag
p3997
I4047
sVarmor
p3998
I4048
sVpointless
p3999
I4049
sVoccupied
p4000
I1907
sVvalve
p4001
I4051
sVday
p4002
I4014
sVmere
p4003
I4717
sVdampened
p4004
I4052
sVvcr
p4005
I4053
sVmate
p4006
I4054
sVarkansas
p4007
I4055
sVwondrous
p4008
I4056
sViistening
p4009
I43
sVscroungers
p4010
I4058
sVobsessive
p4011
I60
sVblasting
p4012
I4060
sVannounced
p4013
I66
sVlasted
p4014
I4846
sVshut
p4015
I4063
sVphilosophy
p4016
I4064
sVjessica
p4017
I4065
sVdictionary
p4018
I4066
sVtwombles
p4019
I4067
sVactivity
p4020
I4068
sVtransfer
p4021
I4725
sVundo
p4022
I122
sVembassy
p4023
I4070
sVattending
p4024
I4071
sVcompletely
p4025
I137
sVadvisor
p4026
I4073
sVindicates
p4027
I3082
sVreporters
p4028
I4075
sVbleed
p4029
I4076
sVask
p4030
I2890
sVlts
p4031
I4077
sVscary
p4032
I4078
sVdrowning
p4033
I4079
sVwheeling
p4034
I3145
sVyard
p4035
I202
sVhostile
p4036
I100
sVg
p4037
I4083
sVroute
p4038
I1520
sVleftie
p4039
I4086
sVput
p4040
I2614
sVmarehan
p4041
I4087
sVtimer
p4042
I4088
sVdavid
p4043
I244
sVaren
p4044
I2337
sVamn
p4045
I4520
sVpigs
p4046
I3933
sVserenity
p4047
I4091
sVwading
p4048
I4092
sVqualifying
p4049
I4093
sVmargaritas
p4050
I4095
sVdistinguish
p4051
I4096
sVscare
p4052
I4097
sVcaii
p4053
I1492
sVmad
p4054
I4099
sVkendall
p4055
I4100
sVsew
p4056
I4101
sVndio
p4057
I4102
sVfinest
p4058
I4103
sVreseda
p4059
I4550
sVstudent
p4060
I4526
sVpossessing
p4061
I4104
sVpowerful
p4062
I4105
sVrightplace
p4063
I3131
sVowned
p4064
I4107
sVhey
p4065
I2340
sVimproving
p4066
I780
sVquotation
p4067
I4453
sVchoose
p4068
I4431
sVbitch
p4069
I4110
sVmah
p4070
I4111
sVowner
p4071
I4112
sVpatriotism
p4072
I3153
sVprecisely
p4073
I4114
sVbetween
p4074
I1960
sVopportune
p4075
I4117
sVhawk
p4076
I3938
sVbonus
p4077
I4118
sVtable
p4078
I4412
sVprivacy
p4079
I445
sVordering
p4080
I4120
sVunknown
p4081
I2868
sVlaps
p4082
I458
sVassure
p4083
I4387
sVaccent
p4084
I467
sVsystem
p4085
I4124
sVrelations
p4086
I4125
sVgrow
p4087
I2474
sVpriority
p4088
I4127
sVattach
p4089
I482
sV1500
p4090
I487
sVdelusions
p4091
I4130
sVscrew
p4092
I4192
sVsergeant
p4093
I4131
sVnelson
p4094
I3502
sVinserting
p4095
I4135
sVfinal
p4096
I4136
sVcabin
p4097
I4137
sVlow
p4098
I2346
sVinterests
p4099
I4139
sVaccompany
p4100
I4140
sVgear
p4101
I2599
sVprostitute
p4102
I3555
sVjesus
p4103
I2553
sVacademy
p4104
I4142
sVgotcha
p4105
I3182
sVexactly
p4106
I94
sVapologise
p4107
I4145
sVamsterdam
p4108
I4146
sVbeatings
p4109
I4147
sVchemicals
p4110
I4148
sVgrandpa
p4111
I4149
sVgreenlight
p4112
I4150
sVnatural
p4113
I4151
sVbarbies
p4114
I4152
sS'UNK'
p4115
I232
sVelite
p4116
I2970
sVinstitution
p4117
I641
sVremember
p4118
I1535
sVyourstation
p4119
I4157
sVdetection
p4120
I3079
sVcolleagues
p4121
I662
sVbid
p4122
I4160
sVsucceeded
p4123
I4161
sVroulette
p4124
I4162
sVboring
p4125
I4547
sVriches
p4126
I4165
sVgoodnight
p4127
I4166
sVbed
p4128
I4167
sVsuccinctly
p4129
I4168
sVappealing
p4130
I723
sVloves
p4131
I4170
sVlover
p4132
I4171
sVproviding
p4133
I4173
sVbet
p4134
I4174
sVingenious
p4135
I4175
sVcounter
p4136
I4177
sVvillains
p4137
I4178
sVpete
p4138
I4216
sVtrusting
p4139
I472
sVresearching
p4140
I3966
sVtrainer
p4141
I2606
sVreassuring
p4142
I555
sVtonight
p4143
I4183
sVpieces
p4144
I3891
sVdefending
p4145
I2534
sVhave
p4146
I4185
sVclose
p4147
I3167
sVneed
p4148
I4187
sVcorral
p4149
I4188
sVapparently
p4150
I3544
sVclearly
p4151
I4190
sVkurth
p4152
I4191
sViive
p4153
I899
sVbastard
p4154
I4193
sVafraid
p4155
I4194
sVangle
p4156
I4195
sVrussians
p4157
I4196
sVfemoral
p4158
I1624
sVforgotten
p4159
I4198
sVagency
p4160
I4199
sVable
p4161
I4200
sVchief
p4162
I4201
sVbattles
p4163
I39
sVarm
p4164
I3169
sVoliveira
p4165
I958
sVforbidden
p4166
I3425
sVconcerns
p4167
I4206
sVstevenson
p4168
I4616
sVwhich
p4169
I4208
sVfunds
p4170
I4209
sVprovoked
p4171
I4210
sVso
p4172
I1546
sVasshole
p4173
I4212
sVjuliet
p4174
I4213
sVunderestimating
p4175
I4214
sVdeposit
p4176
I4215
sVbloodshed
p4177
I2617
sVunless
p4178
I4217
sVcombat
p4179
I4218
sVdeploy
p4180
I1918
sVgerard
p4181
I1548
sVhostages
p4182
I4222
sVnecklace
p4183
I4223
sV01
p4184
I85
sVeight
p4185
I1086
sVstrikes
p4186
I4226
sVlectured
p4187
I4227
sVpreliminary
p4188
I4228
sVdevice
p4189
I4229
sVsophisticated
p4190
I3340
sVphd
p4191
I4525
sVpayment
p4192
I1060
sVspirits
p4193
I3173
sVdelivery
p4194
I4746
sVsubtracted
p4195
I4233
sVabsolutely
p4196
I4234
sVvisiting
p4197
I3175
sVupset
p4198
I1170
sVdisease
p4199
I4237
sVface
p4200
I4238
sVlooked
p4201
I1181
sVpure
p4202
I4000
sVhi
p4203
I4749
sVse
p4204
I4241
sVwounded
p4205
I1214
sVskinny
p4206
I4244
sVfact
p4207
I4245
sV50
p4208
I1026
sVimpression
p4209
I4246
sVselection
p4210
I4247
sVchances
p4211
I1275
sVencrypted
p4212
I4249
sVcharles
p4213
I1285
sVassholes
p4214
I982
sVanyway
p4215
I4252
sVnormaily
p4216
I1382
sVplanning
p4217
I4255
sVmanchester
p4218
I4256
sVparked
p4219
I1322
sVfear
p4220
I4258
sVdebate
p4221
I4260
sVwolcott
p4222
I2537
sVdurant
p4223
I4262
sVear
p4224
I4263
sVbased
p4225
I4264
sVknowledge
p4226
I4265
sVhadn
p4227
I4266
sVirreversible
p4228
I4267
sVwinner
p4229
I4268
sViucky
p4230
I1408
sVcontrols
p4231
I4270
sVshould
p4232
I1416
sVwon
p4233
I3184
sVtape
p4234
I4272
sVbud
p4235
I4273
sVmolecules
p4236
I4274
sVdeactivated
p4237
I2796
sVfuel
p4238
I4276
sVriding
p4239
I4277
sVb
p4240
I4278
sVthousands
p4241
I323
sVeighth
p4242
I4126
sVachieve
p4243
I173
sVbrat
p4244
I4460
sVvigor
p4245
I1021
sVcount
p4246
I4761
sVmove
p4247
I3964
sVhandle
p4248
I4284
sVsweetie
p4249
I1490
sVwatching
p4250
I1497
sVbeat
p4251
I4287
sVbeau
p4252
I4288
sVdope
p4253
I4289
sVtimeframe
p4254
I1445
sVembroidery
p4255
I4285
sVlikely
p4256
I4292
sVbean
p4257
I4294
sVones
p4258
I4295
sVtiming
p4259
I4296
sVpenetrate
p4260
I4297
sVchips
p4261
I2265
sVshaping
p4262
I4221
sVendless
p4263
I2014
sVfollowing
p4264
I3770
sVcommittees
p4265
I4302
sVlvs
p4266
I2358
sVtrucks
p4267
I4304
sVtwice
p4268
I4305
sVshopping
p4269
I4306
sVwheelhouse
p4270
I1626
sVmortals
p4271
I2375
sVsuburbs
p4272
I4309
sVcalling
p4273
I2250
sVinfluenced
p4274
I2706
sVstuff
p4275
I4311
sVshe
p4276
I4312
sVswear
p4277
I4695
sVshh
p4278
I4314
sVofyour
p4279
I3970
sVgrab
p4280
I4316
sVfixed
p4281
I4317
sVdeceived
p4282
I427
sVwithstand
p4283
I1714
sVofficial
p4284
I4769
sVnightstalker
p4285
I4321
sVexists
p4286
I4322
sVacquired
p4287
I4323
sVnational
p4288
I4325
sVliteration
p4289
I4326
sVsalmon
p4290
I3493
sVlupo
p4291
I4328
sVbreathe
p4292
I4329
sVmentioned
p4293
I3973
sVreinforce
p4294
I4330
sVcomputer
p4295
I4331
sVslanted
p4296
I1790
sVdesperate
p4297
I1798
sVdragon
p4298
I2748
sVwhatyou
p4299
I4335
sVgoffena
p4300
I4336
sVdanger
p4301
I3804
sVcloses
p4302
I4338
sVputs
p4303
I3998
sVattempting
p4304
I4340
sVpattern
p4305
I1054
sVnightmare
p4306
I4342
sVvows
p4307
I4343
sVcruel
p4308
I4775
sVtend
p4309
I4345
sVfavor
p4310
I4346
sVstate
p4311
I1674
sVluc
p4312
I4348
sVclosed
p4313
I2321
sVconfusion
p4314
I741
sVnuclear
p4315
I4341
sVmohamed
p4316
I3204
sVpistol
p4317
I4353
sVsabotage
p4318
I4354
sViot
p4319
I2880
sVbought
p4320
I4355
sVlf
p4321
I3976
sVends
p4322
I4357
sVattention
p4323
I3203
sVexplosive
p4324
I1945
sVability
p4325
I4360
sVhelicopters
p4326
I3977
sVjoy
p4327
I4362
sVnotion
p4328
I3653
sVdeliver
p4329
I4364
sVhowever
p4330
I742
sVkicking
p4331
I1992
sVjob
p4332
I4367
sVjoc
p4333
I4368
sVende
p4334
I4369
sVjoe
p4335
I4370
sVkey
p4336
I4371
sVnortheast
p4337
I4372
sVgroup
p4338
I4373
sVprecious
p4339
I2028
sVconfiguration
p4340
I2032
sVproblem
p4341
I4781
sVmonitor
p4342
I4377
sVhits
p4343
I2059
sVgetyou
p4344
I2064
sVlimits
p4345
I4380
sVrobberies
p4346
I2084
sVjoke
p4347
I2087
sVinvited
p4348
I2091
sVbristow
p4349
I2099
sVdrug
p4350
I4386
sVlmf
p4351
I1772
sVadmit
p4352
I4388
sVeta
p4353
I2120
sVgrain
p4354
I4390
sVglory
p4355
I4303
sVtactical
p4356
I4391
sVmarta
p4357
I4392
sVattributes
p4358
I4259
sVpassing
p4359
I2145
sVhighland
p4360
I4395
sVsafely
p4361
I4396
sVjersey
p4362
I4398
sVotherwise
p4363
I4399
sVvent
p4364
I2164
sVkidnapped
p4365
I3778
sVtorn
p4366
I3771
sVopposition
p4367
I3208
sVgone
p4368
I2384
sVwall
p4369
I4404
sVpassword
p4370
I4039
sVtuesday
p4371
I4406
sVwalk
p4372
I4407
sVbetrayed
p4373
I3209
sVbusinessman
p4374
I4243
sVclignancourt
p4375
I2243
sVrpg
p4376
I2246
sVsequences
p4377
I2248
sVrespect
p4378
I2253
sVoakland
p4379
I4413
sVnomination
p4380
I4414
sVaccursed
p4381
I4415
sVsark
p4382
I3042
sVjohnny
p4383
I3991
sVaddition
p4384
I4418
sVprince
p4385
I3393
sVsarg
p4386
I3262
sVcent
p4387
I4420
sVneutralized
p4388
I465
sVreindeer
p4389
I4422
sVdrank
p4390
I2666
sVteamwork
p4391
I4424
sVtreat
p4392
I2351
sViike
p4393
I4426
sVah
p4394
I4427
sVindicators
p4395
I4428
sVproposal
p4396
I2368
sVwaste
p4397
I4430
sVsuzette
p4398
I4230
sVdefine
p4399
I2381
sVfaced
p4400
I2670
sVmike
p4401
I4433
sVarises
p4402
I2397
sVtrackless
p4403
I2627
sVfinishes
p4404
I4436
sVstationed
p4405
I2409
sVfoes
p4406
I4180
sVinbound
p4407
I4439
sVmoved
p4408
I4440
sV467
p4409
I3228
sVfarmer
p4410
I4442
sVorphanage
p4411
I4443
sVcrappy
p4412
I4445
sVhmm
p4413
I4446
sVfinished
p4414
I4447
sVroasting
p4415
I4448
sVours
p4416
I1588
sVsmoking
p4417
I1922
sVan
p4418
I2395
sVspain
p4419
I2494
sVc4
p4420
I654
sVhomes
p4421
I44
sVprospect
p4422
I4455
sVbye
p4423
I4456
sVabandoned
p4424
I4457
sVplain
p4425
I4458
sVmeans
p4426
I4286
sVmemorized
p4427
I4132
sVas
p4428
I2396
sVvalue
p4429
I4462
sVchalk
p4430
I2783
sVinfluential
p4431
I4464
sVmenezes
p4432
I4465
sVtranspo
p4433
I4466
sVfault
p4434
I4467
sVwild
p4435
I3857
sVtasty
p4436
I4469
sVgordy
p4437
I4470
sVultra
p4438
I4471
sVdisarms
p4439
I2921
sVrestoration
p4440
I3638
sVat
p4441
I2399
sVsupply
p4442
I4473
sVbarely
p4443
I3217
sVringing
p4444
I657
sVcell
p4445
I3753
sValmost
p4446
I4476
sVblood
p4447
I4477
sVcompleted
p4448
I4143
sVsite
p4449
I4479
sVstrobes
p4450
I2749
sVrespected
p4451
I2664
sVcounterweight
p4452
I4482
sVinform
p4453
I4197
sVincense
p4454
I4483
sVdual
p4455
I4484
sVwatched
p4456
I4485
sVminiature
p4457
I4242
sVpartner
p4458
I1689
sVinspector
p4459
I2704
sVsits
p4460
I4489
sVconserve
p4461
I4490
sVwhore
p4462
I4491
sVfinance
p4463
I1596
sVhappy
p4464
I1791
sVterrorist
p4465
I942
sVofpeople
p4466
I4495
sVperhaps
p4467
I4496
sVdiscipline
p4468
I4497
sVbegan
p4469
I4498
sVmorning
p4470
I1647
sVmalays
p4471
I863
sVunite
p4472
I4501
sVmember
p4473
I2775
sVguns
p4474
I2567
sS'SOS'
p4475
I0
sVparts
p4476
I4505
sVcasualty
p4477
I4506
sVschematic
p4478
I4507
sVsmarter
p4479
I1600
sVunits
p4480
I4509
sVparty
p4481
I4510
sVterrorism
p4482
I4511
sVfanatics
p4483
I2816
sVtapped
p4484
I4513
sVstart
p4485
I4119
sVgrandeur
p4486
I4514
sVdifficult
p4487
I2832
sVinjured
p4488
I4516
sVexperimented
p4489
I4517
sVpractice
p4490
I4002
sVrightfully
p4491
I4519
sVkgb
p4492
I402
sVreporting
p4493
I700
sVupon
p4494
I2882
sVeffect
p4495
I4523
sVfucker
p4496
I4524
sVromeo
p4497
I341
sVauthors
p4498
I2964
sVtaste
p4499
I2389
sVvault
p4500
I4527
sVfucked
p4501
I2201
sVstrategic
p4502
I4108
sVindigenous
p4503
I4529
sVjudgment
p4504
I4530
sVactuaily
p4505
I3840
sVshitting
p4506
I2945
sVkeep
p4507
I4089
sVvideos
p4508
I4417
sViever
p4509
I3894
sVpriest
p4510
I2267
sVoff
p4511
I4535
sVcenter
p4512
I1686
sVneural
p4513
I2978
sVi
p4514
I4538
sVweapon
p4515
I4539
sVincredible
p4516
I4807
sVwell
p4517
I4541
sVpatrols
p4518
I4542
sVfighting
p4519
I4543
sVhighwayman
p4520
I4544
sVwants
p4521
I2493
sVtouching
p4522
I4254
sVcommand
p4523
I3029
sVpalaces
p4524
I4548
sVsufficient
p4525
I4441
sVinterpol
p4526
I294
sViearned
p4527
I3931
sVposition
p4528
I4551
sVknight
p4529
I4552
sVdrawing
p4530
I4553
sVflicker
p4531
I3080
sVlatest
p4532
I3068
sVload
p4533
I2207
sVdeltas
p4534
I2363
sV1oo
p4535
I4042
sVrestructure
p4536
I3089
sVrocket
p4537
I4559
sVcamel
p4538
I1364
sVmoments
p4539
I4561
sV42
p4540
I4811
sVaccurate
p4541
I4563
sVhalf
p4542
I1609
sVobtain
p4543
I4564
sVdetail
p4544
I4812
sVsources
p4545
I3473
sVrooms
p4546
I4566
sVsurpass
p4547
I4567
sVdakota
p4548
I4568
sVskill
p4549
I4569
sVprisoner
p4550
I4570
sVcontribute
p4551
I4790
sVrescue
p4552
I500
sVtaken
p4553
I2636
sVflashlight
p4554
I4573
sVgenerous
p4555
I4575
sVdisturbance
p4556
I4576
sVfield
p4557
I4432
sVsatellites
p4558
I4578
sVonward
p4559
I1873
sVsmith
p4560
I2533
sVwash
p4561
I4581
sVcapabilities
p4562
I3917
sVbullshit
p4563
I1612
sVdrew
p4564
I4584
sVreasons
p4565
I3232
sVcleanup
p4566
I4765
sVclamp
p4567
I4502
sVclipped
p4568
I4588
sVcrack
p4569
I1781
sVusage
p4570
I4590
sVaerial
p4571
I4591
sVought
p4572
I3302
sVadvanced
p4573
I993
sVacted
p4574
I4592
sVhomework
p4575
I422
sVcrummy
p4576
I4594
sVresolved
p4577
I4595
sVtests
p4578
I4596
sVfate
p4579
I4597
sVstunts
p4580
I4016
sVchecking
p4581
I4599
sVfinisher
p4582
I3577
sVsweep
p4583
I4601
sVsilberman
p4584
I3728
sVhaul
p4585
I4602
sVfive
p4586
I4603
sVmatty
p4587
I2960
sVsupervise
p4588
I3383
sVskinnies
p4589
I3387
sVimmediately
p4590
I4607
sVvibration
p4591
I4608
sVcoincidence
p4592
I3238
sVheating
p4593
I4480
sVessential
p4594
I4610
sVpaying
p4595
I3754
sVloss
p4596
I4283
sVemma
p4597
I3433
sVlike
p4598
I4613
sVlost
p4599
I300
sVmiami
p4600
I4615
sVpurchasing
p4601
I4202
sVfingerprints
p4602
I4617
sVjournalism
p4603
I4618
sVfernando
p4604
I4619
sVloser
p4605
I4620
sVtaping
p4606
I3435
sVbring
p4607
I4253
sVjournalist
p4608
I4622
sVcorners
p4609
I3615
sVagents
p4610
I4402
sVworks
p4611
I4626
sVsoft
p4612
I4627
sVreplacement
p4613
I4628
sVcribbs
p4614
I4629
sVindications
p4615
I3530
sVbecause
p4616
I3532
sVglare
p4617
I4632
sVclassical
p4618
I4633
sVsmoothly
p4619
I4634
sVscared
p4620
I4635
sVvillage
p4621
I4636
sVthief
p4622
I3568
sVauthority
p4623
I643
sVideals
p4624
I4639
sVdaylight
p4625
I4640
sVinfiltrated
p4626
I1830
sVproper
p4627
I4643
sVgave
p4628
I973
sVlittle
p4629
I1731
sVblade
p4630
I4645
sVprague
p4631
I4646
sVhumming
p4632
I4647
sVrecognition
p4633
I4648
sVdisrupting
p4634
I4649
sVhappens
p4635
I4650
sVest
p4636
I4651
sVcompetitor
p4637
I4652
sVlead
p4638
I4653
sVleak
p4639
I3658
sVavoid
p4640
I4655
sVmines
p4641
I34
sVsalaries
p4642
I4658
sVconstantly
p4643
I4742
sVdoes
p4644
I4659
sVscrewed
p4645
I4660
sVrockets
p4646
I4661
sVmoesko
p4647
I4662
sVphiladelphia
p4648
I3626
sVdemonstrated
p4649
I4664
sVpasty
p4650
I4665
sVpr
p4651
I3246
sVblowing
p4652
I3741
sVadonis
p4653
I3183
sVslight
p4654
I3752
sVdemonstration
p4655
I4669
sVjournal
p4656
I4670
sVbrokering
p4657
I4671
sVbathroom
p4658
I4672
sVbeach
p4659
I4673
sVlieutenant
p4660
I223
sVmurdered
p4661
I4675
sVdevil
p4662
I3248
sVrambaldi
p4663
I4677
sValthough
p4664
I4678
sVr
p4665
I1786
sVloans
p4666
I4679
sVtrials
p4667
I4549
sVpanel
p4668
I791
sVgained
p4669
I4681
sVturpin
p4670
I4831
sVabout
p4671
I4683
sVbelville
p4672
I4684
sVactual
p4673
I1504
sVasks
p4674
I2067
sVembry
p4675
I4687
sVgetting
p4676
I4688
sVcolumn
p4677
I4689
sVfreedom
p4678
I3876
sVmommy
p4679
I4691
sVrecognized
p4680
I1537
sVmadame
p4681
I4693
sVangeles
p4682
I4694
sVcamels
p4683
I1761
sVturandot
p4684
I1586
sVtighter
p4685
I4697
sVtongue
p4686
I4699
sVturtle
p4687
I4700
sVsplash
p4688
I2633
sValliance
p4689
I3969
sVletters
p4690
I4702
sVfirstly
p4691
I4698
sVmagnates
p4692
I4794
sVkeeps
p4693
I4704
sVpreviously
p4694
I3986
sVwashington
p4695
I4001
sVcommitment
p4696
I4707
sVparliament
p4697
I3841
sVproblemo
p4698
I3635
sVweather
p4699
I4024
sVpromise
p4700
I4710
sVbrush
p4701
I4711
sVfemale
p4702
I4712
sVcentral
p4703
I3856
sVroads
p4704
I4714
sVmera
p4705
I4715
sVforget
p4706
I2466
sVdecorated
p4707
I2619
sVnegotiable
p4708
I4718
sVeh
p4709
I1633
sVhitting
p4710
I3257
sV1984
p4711
I4721
sVnuke
p4712
I4722
sVlaugh
p4713
I4410
sVmyrtus
p4714
I4723
sVsubmarine
p4715
I1079
sVcannotsend
p4716
I2431
sVbuckle
p4717
I3161
sVspots
p4718
I4728
sVkidding
p4719
I4729
sVspread
p4720
I4696
sVposters
p4721
I3639
sVtrigger
p4722
I2185
sVoakleys
p4723
I4138
sVwouldn
p4724
I2798
sVpowdered
p4725
I4733
sVcarrying
p4726
I4084
sVnaturally
p4727
I4735
sVfunction
p4728
I4176
sVbuilding
p4729
I4737
sVbuy
p4730
I4738
sVnorth
p4731
I4739
sVstadium
p4732
I3707
sVaircraft
p4733
I4741
sVirina
p4734
I2562
sV1863
p4735
I3283
sVbooked
p4736
I4743
sVevacuate
p4737
I4642
sVprettying
p4738
I4454
sVvolume
p4739
I4232
sVreminds
p4740
I4747
sVrepeated
p4741
I4748
sVconstruction
p4742
I4240
sVmailed
p4743
I4750
sVgoals
p4744
I4751
sVcourts
p4745
I4752
sVhm
p4746
I4753
sVbeck
p4747
I4179
sVblackmailers
p4748
I4755
sVteaming
p4749
I4756
sVpilla
p4750
I3392
sVeat
p4751
I4758
sVactivating
p4752
I4207
sVifyou
p4753
I2148
sVstraightaway
p4754
I4282
sValso
p4755
I3399
sVtracker
p4756
I4732
sVterritory
p4757
I3104
sVtactics
p4758
I4764
sVcalls
p4759
I4315
sVitin
p4760
I356
sVwhether
p4761
I4767
sVwish
p4762
I4313
sVj
p4763
I4320
sVsmooth
p4764
I4324
sVsigned
p4765
I4771
sVincompetent
p4766
I2438
sVcorpses
p4767
I4773
sVbanker
p4768
I4625
sVbelow
p4769
I4344
sVconvince
p4770
I4776
sVaslan
p4771
I3320
sVdangerous
p4772
I4768
sVgray
p4773
I4778
sVblessings
p4774
I3912
sVcake
p4775
I4780
sVdistribution
p4776
I4376
sVitis
p4777
I3096
sVminutes
p4778
I4783
sVdisplay
p4779
I4784
sVplutonium
p4780
I4785
sVsponsor
p4781
I4786
sVfoster
p4782
I2492
sVrabbits
p4783
I4787
sVrecognize
p4784
I2242
sVtally
p4785
I4789
sVcircus
p4786
I1641
sVkisses
p4787
I4791
sVpig
p4788
I4792
sVconsumed
p4789
I4793
sVinn
p4790
I1889
sVnukes
p4791
I4795
sVconfided
p4792
I4815
sVpits
p4793
I4472
sVeducation
p4794
I2835
sVawry
p4795
I2391
sVgirl
p4796
I4799
sVworse
p4797
I4800
sVbristows
p4798
I4437
sVdiego
p4799
I4802
sVmutual
p4800
I4803
sVcompared
p4801
I4804
sVsearching
p4802
I4805
sVloud
p4803
I4164
sVnonetheless
p4804
I4540
sVdressed
p4805
I1739
sV44
p4806
I4809
sVpacks
p4807
I3073
sVboot
p4808
I4562
sVdirectors
p4809
I2454
sV40
p4810
I4813
sV41
p4811
I2154
sVsaviour
p4812
I4574
sVcommitments
p4813
I1956
sVold
p4814
I1018
sVbook
p4815
I4586
sVboom
p4816
I871
sVsick
p4817
I4819
sVbetter
p4818
I2030
sVmartial
p4819
I4821
sVmass
p4820
I4822
sVwing
p4821
I1862
sVconclusion
p4822
I1740
sVjunk
p4823
I4637
sVrepeat
p4824
I4641
sVstar
p4825
I1707
sVbranco
p4826
I4816
sVmonday
p4827
I4827
sVduck
p4828
I4828
sVclass
p4829
I4829
sVstay
p4830
I4830
sVrisked
p4831
I4682
sVlrene
p4832
I4832
sVchance
p4833
I4833
sVkinda
p4834
I4834
sVbasement
p4835
I4836
sVsuck
p4836
I4837
sVfriends
p4837
I4838
sVserial
p4838
I3901
sVcliff
p4839
I4840
sVsimon
p4840
I3684
sVstirred
p4841
I4841
sVdetonating
p4842
I4842
sVcoupling
p4843
I4843
sVrich
p4844
I3843
sVchalks
p4845
I4845
sVextraction
p4846
I974
sVrule
p4847
I4847
sVoriginal
p4848
I4848
sVpierson
p4849
I1630
sVmedivac
p4850
I4850
sVpescadero
p4851
I4835
sVdefend
p4852
I4050
sVcompromised
p4853
I4852
s.