((lp0
F3.66856562448611
aF3.5303315278463865
aF3.451618445023824
aF3.361771493309977
aF3.2877661839546546
aF3.2904184068147293
aF3.165444516455164
aF3.186775735798966
aF3.222287907527059
aF3.0816423462763707
aF3.075349175977095
aF2.9977978763976294
aF3.0564623137402918
aF3.0087670743815975
aF3.0029611157075093
aF2.928812606113367
aF2.977264976428898
aF2.901392197170448
aF3.005710675679245
aF2.8746700212990612
aF2.9351422794150306
aF2.9397593878300436
aF2.951003590927897
aF2.860562373693016
aF2.88623112790961
aF2.8258645064387746
aF2.8497025736903585
aF2.872877413888655
aF2.882072436701174
aF2.8639833982545513
aF2.721019492158637
aF2.822209813812314
aF2.8573758528696254
aF2.761371233392152
aF2.7233686150987824
aF2.821620938115394
aF2.8238012749993415
aF2.8020578970808914
aF2.7663473544028148
aF2.752204328213976
aF2.7950418866465254
aF2.781391950590564
aF2.8006234405715196
aF2.7657882183676996
aF2.785011516877694
aF2.7067850825238846
aF2.7721705935021346
aF2.891112266564066
aF2.7260140173958463
aF2.6511968309114353
aF2.7625153539533245
aF2.7279716003714563
aF2.7708145278712846
aF2.769167715769947
aF2.691629758749208
aF2.728147889213118
aF2.690257304911492
a(lp1
F3.6138747843536825
aF3.748332045170023
aF3.36063660788148
aF3.4439664905110727
aF3.29886867928333
aF3.2974534850300525
aF3.341163174506446
aF2.8796470727019825
aF3.2230205847927516
aF3.09288153186413
aF2.951864824549713
aF2.992684218724452
aF3.0852343435117837
aF2.75947475150475
aF3.0781972579750274
aF3.0516716589790582
aF3.026547649778544
aF3.0617669685602746
aF2.8950973326867824
aF2.921174373133164
aF3.0135494992698884
aF2.9051167869680246
aF2.873239705414406
aF2.8825767792121315
aF2.8243361846377697
aF2.975812484888122
aF2.7065609916326703
aF2.840244573217593
aF2.800062523973383
aF2.8824644087881373
aF2.8624148271049243
aF2.7902941228727833
aF2.797440871521028
aF2.8515850643113962
aF2.8556417178350357
aF2.798444499054409
aF2.706360853031345
aF2.8200358224291175
aF2.931420894901965
aF2.867126878159774
aF2.7252942557157898
aF2.7752276836941165
aF2.7660484682537363
aF2.7539133635062405
aF2.7315422051488003
aF2.8043903577082934
aF2.826875724222495
aF2.781060729841522
aF2.734192347110556
aF2.725840221581321
aF2.7484199954703845
aF2.7279775195942775
aF2.7645431106137184
aF2.757804033557482
aF2.86282284567471
aF2.7528863696114376
aF2.7888369510452025
atp2
.