((lp0
F3.6758860673274256
aF3.406852486122045
aF3.437522209433153
aF3.3807455754141347
aF3.3208300964534505
aF3.415682481920011
aF3.324642228527086
aF3.2096755855674433
aF3.2597762029923905
aF3.191310813899922
aF3.192378049467021
aF3.1874452379044946
aF3.1534127818233677
aF3.1448818055011483
aF3.0611995438437387
aF3.086443377859692
aF3.0420673910484903
aF3.032720571177809
aF2.9783898170715792
aF2.987898610157367
aF3.016691573009694
aF2.946678740050657
aF2.93132995828056
aF2.9305096075462047
aF3.0061550124953076
aF2.928428553035504
aF2.902809229366772
aF2.9085485681570304
aF2.8744794624039223
aF2.8650979701355266
aF2.891926035060663
aF2.8543601495004993
aF2.846260384381481
aF2.834162697931096
aF2.8671936383711167
aF2.8463575435375743
aF2.83486219391265
aF2.8516060695527483
aF2.8185614059861352
aF2.823052588159027
aF2.8949203742583727
aF2.817111491849037
aF2.788353345091347
aF2.7534605179245664
aF2.8633695919615434
aF2.880621932217268
aF2.8212410406322084
aF2.878991100405622
aF2.7564837277323124
aF2.814682495196797
aF2.8000626212002535
aF2.765496551416727
aF2.8018558847563932
aF2.7849575609270287
aF2.824791856173929
aF2.8043286983414246
aF2.799394580964284
aF2.7618689456087937
aF2.670578971874099
aF2.8029380545478375
aF2.728391400312433
aF2.722702829954628
aF2.77259172526241
aF2.76530084956851
aF2.6763842506242286
aF2.7065424545706978
aF2.719966782780665
aF2.6900562726106116
aF2.626018476248464
aF2.696320131522094
aF2.693500630517
aF2.630416672166102
aF2.7337278285111055
aF2.721778025872585
aF2.636884809215914
aF2.6904235130347662
aF2.6805029479871383
aF2.706771214207976
aF2.700872828618422
aF2.6659006583184293
aF2.656580128429232
a(lp1
F3.546676457994047
aF3.077964659482003
aF3.1758199943075316
aF3.4576143353881
aF3.4520852055947784
aF3.263103078335859
aF3.0870325924193716
aF3.2314493947750216
aF3.009576693941488
aF3.3018974203680482
aF3.1267141760363115
aF3.141943153150264
aF3.060496209600942
aF2.8821581552860662
aF3.0340908027002444
aF2.9943635041473042
aF3.0935775330695052
aF2.9690190413290813
aF3.080437337360631
aF2.9460405525364988
aF2.9717403071414314
aF2.9431639220979915
aF2.790704552505056
aF3.092067471367723
aF2.824518233515131
aF2.9945509820423757
aF3.0265773152662123
aF2.9256185639700303
aF2.898560135615228
aF2.8825792457221557
aF2.895090373467133
aF3.019856384226033
aF3.036588316595395
aF2.850593418016209
aF2.8679898315178702
aF2.9380870991770482
aF2.8645425038531798
aF2.8797609013990684
aF2.8294936757331035
aF2.86594893492967
aF2.8292735106683113
aF2.87234498168592
aF2.8316208335213586
aF2.922822185059646
aF2.8032254022865897
aF2.857432119711806
aF2.8640683756389635
aF2.832620102300163
aF2.7791828922773325
aF2.9100461490936507
aF2.784776785656356
aF2.75800590944888
aF2.832938363672945
aF2.847234881123184
aF2.8004620693276348
aF2.78761084273253
aF2.7602141435835814
aF2.764556270680879
aF2.8629469666802474
aF2.8482585370736775
aF2.8014303080005414
aF2.785932825270362
aF2.76783511174694
aF2.774263902140776
aF2.730608543832458
aF2.752247407398383
aF2.823821701087469
aF2.844103286928441
aF2.800628400897548
aF2.7988756930808076
aF2.7653277937715575
aF2.7733545252182465
aF2.8012778709485255
aF2.7560251560195277
aF2.681030684577414
aF2.801552118606027
aF2.776864104555789
aF2.7124204954373656
aF2.7532405601986647
aF2.734472993274661
aF2.798637191725656
atp2
.