((lp0
F3.6255995685841484
aF3.390830412742471
aF3.2888466147838797
aF3.2031478316340114
aF3.2075618429200845
aF3.1303373067959455
aF3.0469729777040824
aF3.0074770259029324
aF2.9755357279807693
aF2.966952311251003
aF2.903072784981185
aF2.8905613464935755
aF2.878945755175147
aF2.9099082704292876
aF2.7915024822012753
aF2.815646431850959
aF2.782835824349352
aF2.7648820203413473
aF2.779258060193159
aF2.78105753609451
aF2.870047227464194
aF2.756515919949229
aF2.735476848780714
aF2.718388279516917
aF2.7469586590930057
aF2.706743269172943
aF2.6986539868471495
aF2.762613219502662
aF2.6906586283348792
aF2.667254759981412
aF2.7368551975459177
aF2.7131725441486685
aF2.619503340817789
aF2.702363067450474
aF2.6541817335324187
aF2.6878695506613144
aF2.6627165807000446
aF2.667271507598747
aF2.697212009689951
aF2.677932804491295
a(lp1
F3.366158810262452
aF3.1971812280942498
aF3.20891646495482
aF3.3064750335886783
aF3.101540945284764
aF3.153394613060307
aF2.9293272152484207
aF3.104400711135087
aF2.9974813491153474
aF3.0114370798870054
aF3.0900760771943827
aF2.904837195396368
aF2.9984051454595986
aF2.908124078730804
aF2.9463221190653788
aF2.9259256260008173
aF2.8486945499501233
aF2.9151154560363524
aF2.734353238480476
aF2.9662239974050415
aF2.8083988613982704
aF2.794013226605385
aF2.7305118979164265
aF2.7921195363997824
aF2.7775602068707568
aF2.7178797095031055
aF2.6992066325932726
aF2.7761127125512237
aF2.810059619410596
aF2.7515371513326974
aF2.802368557371271
aF2.676341751466568
aF2.6610799727739196
aF2.7655691036400105
aF2.709770278607372
aF2.7260111845802477
aF2.7079057943645566
aF2.747953272807377
aF2.7206370727865448
aF2.691366893875857
atp2
.